(dp0
Vcryptography rail fence cipher
p1
I453
sVimage processing PrewittFilter
p2
I782
sVgreedy algorithms hillclimber
p3
I129
sVmathematical algorithms decoding of string
p4
I405
sVstack stack
p5
I634
sVrandomized algorithms kth smallest element algorithm
p6
I152
sVmathematical algorithms derangements
p7
I371
sVdynamic programming coin change
p8
I205
sVcoding style rust
p9
I87
sVmake binary tree from inorder and preorder
p10
I602
sVmathematical algorithms count digits
p11
I348
sVmathematical algorithms gaussian elimination
p12
I378
sVmathematical algorithms hill climbing
p13
I376
sVcomputational geometry jarvis march
p14
I672
sVcryptography atbash cipher
p15
I457
sVartificial intelligence random forests
p16
I789
sVoperations insertion
p17
I566
sVcryptography baconian cipher
p18
I446
sVmathematical algorithms square free number
p19
I416
sVrefs remotes
p20
I17
sVbinary tree is same
p21
I605
sVgraph algorithms channel assignment
p22
I225
sVmathematical algorithms integer to roman
p23
I354
sVutility palindrome
p24
I172
sVmathematical algorithms fast inverse sqrt
p25
I364
sVunclassified average
p26
I117
sVdata structures bag
p27
I627
sVtheory of computation nondeterministic finite atomaton
p28
I431
sVtraversal zigzag
p29
I590
sVcode cellular automaton
p30
I139
sVsorting median sort
p31
I524
sVqueue queue stream
p32
I643
sVbit manipulation thrice unique number
p33
I464
sVpascal mac
p34
I74
sVgraph algorithms ford fulkerson maximum flow
p35
I219
sVdynamic programming test
p36
I175
sVprotection proxy
p37
I290
sVc linux
p38
I39
sVdynamic programming weighted job scheduling
p39
I195
sVgraph algorithms eulerian path
p40
I224
sVdivide conquer test
p41
I493
sVgreedy algorithms prim minimum spanning tree
p42
I133
sVgraph algorithms matrix transformation
p43
I252
sVcryptography huffman encoding
p44
I449
sVmathematical algorithms add polynomials
p45
I398
sVcode data structures
p46
I534
sVsorting src
p47
I508
sVbacktracking rat in a maze
p48
I804
sVcomputational geometry test
p49
I660
sVdivide conquer factorial
p50
I505
sVspace partitioning tree quad tree
p51
I622
sVproject euler problem 036
p52
I729
sVtree bottom view binary tree
p53
I604
sVartificial intelligence decision tree
p54
I760
sVunclassified josephus problem
p55
I108
sVmathematical algorithms perfect number
p56
I361
sVcoding style elixir
p57
I78
sVcellular automaton brians brain
p58
I142
sVscala gaussian
p59
I383
sVmathematical algorithms convolution
p60
I417
sVcoding style c++
p61
I93
sVuncrustify tests input
p62
I96
sVcryptography vigenere cipher
p63
I439
sVdynamic programming boolean parenthesization
p64
I182
sVgaussian elimination scala
p65
I379
sV.git branches
p66
I13
sVscheduling smallest remaining time first
p67
I323
sVstring algorithms password strength checker
p68
I680
sVnumerical analysis runge kutt
p69
I276
sVcode randomized algorithms
p70
I149
sVmonitors monitors system v
p71
I336
sVimage processing Canny
p72
I784
sVpython mac
p73
I44
sVcode sorting
p74
I506
sVqueue queue
p75
I647
sVcellular automaton conways game of life
p76
I145
sVswift linux
p77
I53
sVdesign pattern src
p78
I280
sVcode artificial intelligence
p79
I753
sVmathematical algorithms armstrong numbers
p80
I428
sVgraph algorithms topological sort
p81
I257
sVdynamic programming longest independent set
p82
I193
sVcoding style python
p83
I86
sVsorting tree sort
p84
I512
sVgraph algorithms bellman ford algorithm
p85
I251
sVdynamic programming minimum insertion palindrome
p86
I210
sVsearch binary search
p87
I711
sVmemory management memory mapping
p88
I329
sVstring algorithms finite automata
p89
I685
sVqueue queue using linked list
p90
I641
sVdynamic programming binomial coefficient
p91
I183
sVbacktracking sudoku solve
p92
I803
sVswift windows
p93
I55
sVOOP patterns observer java
p94
I292
sVgraph algorithms vertex cover
p95
I241
sVkotlin windows
p96
I33
sVcode greedy algorithms
p97
I123
sVmathematical algorithms karatsuba multiplication
p98
I406
sVinstallation guides python
p99
I42
sVdynamic programming shortest common supersequence
p100
I200
sVstring algorithms pangram checker
p101
I699
sVoperations print reverse
p102
I561
sVcosmos scripts
p103
I21
sVgreedy algorithms k centers
p104
I135
sVmathematical algorithms newton polynomial
p105
I407
sVstring algorithms kasai algorithm
p106
I690
sVoperations find
p107
I559
sVartificial intelligence gaussian naive bayes
p108
I761
sVgo linux
p109
I69
sVgraph algorithms bridges in graph
p110
I248
sVrandomized algorithms test
p111
I150
sVsquare root decomposition test
p112
I796
sVc++ windows
p113
I67
sVsearch jump search
p114
I707
sVcomputer graphics diamond square
p115
I162
sVmathematical algorithms pandigital number
p116
I387
sVstring algorithms test
p117
I678
sVmathematical algorithms count trailing zeroes
p118
I372
sVstack abstract stack
p119
I636
sVsha sha 256
p120
I444
sVswift mac
p121
I54
sVgraph algorithms shortest path k edges
p122
I258
sVartificial intelligence principal component analysis
p123
I791
sVbinary tree node
p124
I599
sVgraph algorithms centroid decomposition
p125
I250
sVcode search
p126
I702
sVcoding style kotlin
p127
I80
sVartificial intelligence k Nearest Neighbours
p128
I763
sVgraph algorithms depth first search
p129
I263
sVscheduling multi level feedback queue scheduling
p130
I322
sVsearch exponential search
p131
I712
sVqueue reverse queue
p132
I645
sVmathematical algorithms lexicographic string rank
p133
I342
sVqueue circular buffer
p134
I644
sVbinary tree path sum
p135
I594
sVartificial intelligence DBSCAN Clustering
p136
I756
sVcoding style java
p137
I92
sVdynamic programming minimum cost polygon triangulation
p138
I202
sVinstallation guides rust
p139
I48
sVrust linux
p140
I49
sVmathematical algorithms taxicab numbers
p141
I421
sVmathematical algorithms check is square
p142
I418
sVremotes origin
p143
I18
sVlist singly linked list
p144
I554
sVcoding style ruby
p145
I81
sVmathematical algorithms replace 0 with 5
p146
I374
sVcryptography polybius cipher
p147
I454
sVpython windows
p148
I45
sVmathematical algorithms std
p149
I412
sVdynamic programming Array Median
p150
I191
sVunclassified biggest suffix
p151
I112
sVlist doubly linked list
p152
I548
sVcomputational geometry halfplane intersection
p153
I670
sVstring algorithms lipogram checker
p154
I697
sVmonte carlo src
p155
I275
sVdivide conquer tournament method to find min max
p156
I498
sVimage processing houghTransform
p157
I785
sVgraph algorithms count of ways n
p158
I234
sVgraph algorithms longest path directed acyclic graph
p159
I266
sVstring algorithms naive pattern search
p160
I693
sVlist circular linked list
p161
I552
sVoperating system concurrency
p162
I330
sVheap max heap
p163
I576
sVgame theory game of nim win loss prediction
p164
I750
sVgreedy algorithms egyptian fraction
p165
I138
sVdynamic programming palindrome partition
p166
I181
sVguides coding style
p167
I76
sVdynamic programming subset sum
p168
I204
sVbit manipulation maximum xor value
p169
I475
sVproject euler problem 102
p170
I743
sVrefs tags
p171
I11
sVgraph algorithms postorder from inorder and preorder
p172
I259
sVbinary tree make mirror tree
p173
I606
sVgraph algorithms src
p174
I218
sVartificial intelligence TSP
p175
I764
sVnearest sequence memory nsm MATLAB
p176
I771
sVgraph algorithms graph coloring
p177
I254
sVbit manipulation bit division
p178
I467
sVcellular automaton elementary cellular automata
p179
I144
sVgraph algorithms travelling salesman mst
p180
I232
sVoperations merge sorted
p181
I567
sVstring algorithms levenshtein distance
p182
I688
sVsorting merge sort
p183
I525
sVmathematical algorithms steepest descent
p184
I420
sVcryptography rsa
p185
I437
sVcode operating system
p186
I313
sVsearch ternary search
p187
I705
sVrust mac
p188
I50
sVartificial intelligence Linear Regression
p189
I762
sVsorting stooge sort
p190
I529
sVonline challenges rosalind
p191
I746
sVrandomized algorithms random node linkedlist
p192
I159
sVcomputational geometry 2d separating axis test
p193
I671
sVthird party uncrustify
p194
I23
sVjavascript linux
p195
I57
sVconcurrency peterson algorithm for mutual exclusion
p196
I333
sVdynamic programming box stacking
p197
I189
sVtree space partitioning tree
p198
I621
sVgraph algorithms floyd warshall algorithm
p199
I242
sVcode online challenges
p200
I713
sVoperating system scheduling
p201
I320
sVgame theory src
p202
I749
sVartificial intelligence k means
p203
I794
sVsorting flash sort
p204
I510
sVstack balanced expression
p205
I635
sVgraph algorithms strongly connected components
p206
I260
sVbit manipulation byte swapper
p207
I477
sVcoding style go
p208
I97
sVc mac
p209
I40
sVinstallation guides kotlin
p210
I30
sVcompression lossless compression
p211
I488
sVmain scala
p212
I382
sVtree multiway tree
p213
I611
sVaes csharp example
p214
I442
sVhashs hash table
p215
I650
sVbacktracking m coloring problem
p216
I813
sVfinite automata C
p217
I686
sVdynamic programming no consec ones
p218
I207
sVsquare root decomposition src
p219
I797
sVimage processing SobelFilter
p220
I783
sVcryptography src
p221
I436
sVsearch src
p222
I704
sVonline challenges src
p223
I715
sVdynamic programming longest palindromic sequence
p224
I187
sVinstallation guides elixir
p225
I26
sVartificial intelligence minimax
p226
I774
sVmathematical algorithms automorphic numbers
p227
I403
sVbit manipulation count set bits
p228
I473
sVcosmos .github
p229
I20
sVdata structures list
p230
I547
sVartificial intelligence convolutional neural network
p231
I793
sVstring algorithms trie pattern search
p232
I683
sVcryptography runningkey cipher
p233
I451
sVmathematical algorithms average stream numbers
p234
I373
sVoperations reverse
p235
I558
sVstring algorithms rabin karp algorithm
p236
I696
sVmultiway tree splay tree
p237
I615
sVmathematical algorithms amicable numbers
p238
I425
sVdesign pattern singleton pattern
p239
I281
sVoperations delete
p240
I565
sVstring algorithms arithmetic on large numbers
p241
I687
sVfilters src
p242
I480
sVbit manipulation power of 2
p243
I476
sVdata structures stack
p244
I628
sVcoding style c
p245
I85
sVartificial intelligence artificial neural network
p246
I790
sVcode mathematical algorithms
p247
I338
sVcoding style lisp
p248
I88
sVheap binomial heap
p249
I575
sVrosalind complement dna strand
p250
I747
sVmathematical algorithms dfa division
p251
I399
sVartificial intelligence perceptron
p252
I758
sVround robin scheduling round robin c
p253
I325
sVpython pip linux
p254
I47
sVsorting gnome sort
p255
I513
sVcode dynamic programming
p256
I174
sVbacktracking partitions of set
p257
I807
sVspace partitioning tree kd tree
p258
I625
sVoperations unclassified
p259
I556
sVbinary tree convert to doubly linked list
p260
I596
sVcode computational geometry
p261
I659
sVsquare root decomposition MOs Algorithm
p262
I798
sVartificial intelligence image processing
p263
I781
sVcryptography rot13 cipher
p264
I445
sVcoding style javascript
p265
I91
sVfacade daily
p266
I296
sVdesign pattern test
p267
I279
sVcryptography morse cipher
p268
I450
sVbit manipulation flip bits
p269
I471
sVgraph algorithms left view binary tree
p270
I237
sVproject euler problem 022
p271
I737
sVproject euler problem 020
p272
I734
sVproject euler problem 021
p273
I725
sVproject euler problem 026
p274
I718
sVproject euler problem 024
p275
I724
sVproject euler problem 025
p276
I732
sVselection algorithms test
p277
I164
sVproject euler problem 028
p278
I721
sVbinary tree rope
p279
I609
sVdata structures src
p280
I546
sVqueue queue using stack
p281
I646
sVunclassified src
p282
I103
sVbinary tree serializer
p283
I607
sVstring algorithms palindrome substring
p284
I695
sVkotlin mac
p285
I32
sVcomputer graphics src
p286
I161
sVmathematical algorithms reverse number
p287
I388
sVrust windows
p288
I51
sVunclassified magic square
p289
I119
sVfactory gifts
p290
I307
sVbinary tree is binary tree
p291
I592
sVstack postfix evaluation
p292
I632
sVproject euler problem 040
p293
I744
sVdynamic programming maximum weight independent set of path graph
p294
I194
sVmathematical algorithms tribonacci numbers
p295
I367
sVsorting sleep sort
p296
I514
sVdynamic programming factorial
p297
I214
sVdata structures tree
p298
I568
sVmathematical algorithms prime numbers of n
p299
I368
sVinstallation guides javascript
p300
I56
sVmathematical algorithms modular inverse
p301
I375
sVOOP patterns facade
p302
I295
sVproxy demo
p303
I288
sVinstallation guides ruby
p304
I34
sVdaily tasks
p305
I297
sVimage processing Erode dilate
p306
I788
sVdivide conquer maximum contiguous subsequence sum
p307
I495
sVcomputational geometry chans algorithm
p308
I666
sVdynamic programming longest bitonic sequence
p309
I201
sVdata structures hashs
p310
I648
sVstring algorithms palindrome checker
p311
I692
sVsearch linear search
p312
I708
sVsorting comb sort
p313
I519
sVunclassified test
p314
I101
sVbinary tree binary tree
p315
I583
sVdivide conquer warnock algorithm
p316
I497
sVgraph algorithms minimum s t cut
p317
I227
sVmultiway tree red black tree
p318
I613
sVelixir mac
p319
I28
sVrandomized algorithms birthday paradox
p320
I156
sVbit manipulation convert number binary
p321
I468
sVdynamic programming longest common increasing subsequence
p322
I209
sVstack prefix to postfix
p323
I631
sVcellular automaton genetic algorithm
p324
I147
sVsorting shaker sort
p325
I528
sVdynamic programming Optimal Binary Search Tree
p326
I196
sVOOP patterns singleton pattern
p327
I284
sVgraph algorithms johnson algorithm shortest path
p328
I233
sVb tree b tree
p329
I619
sVcryptography caesar cipher
p330
I438
sVprimality tests solovay-strassen primality test
p331
I353
sVnumerical analysis monte carlo
p332
I274
sVdynamic programming digit dp
p333
I206
sVcoding style swift
p334
I90
sVstring algorithms kmp algorithm
p335
I700
sVsorting radix sort
p336
I511
sVdesign pattern builder pattern
p337
I311
sVcoding style c#
p338
I89
sVgreedy algorithms activity selection
p339
I128
sVbinary tree traversal
p340
I584
sVbit manipulation hamming distance
p341
I470
sVconcurrency monitors
p342
I335
sVproject euler problem 034
p343
I739
sVbinary tree aa tree
p344
I608
sVlossless compression lempel-ziv-welch
p345
I489
sVartificial intelligence src
p346
I755
sVproject euler problem 037
p347
I733
sVaes 128 aes csharp
p348
I441
sVsorting pigeonhole sort
p349
I522
sVadjacency lists graph representation adjacency lists in C
p350
I256
sVcryptography autokey cipher
p351
I456
sVprimality tests fermat primality test
p352
I352
sVbinary tree tree
p353
I603
sVdesign pattern policy based design
p354
I312
sVcellular automaton test
p355
I140
sVstring algorithms aho corasick algorithm
p356
I682
sVrandomized algorithms random from stream
p357
I155
sVtree trie
p358
I579
sVcode backtracking
p359
I799
sVunclassified minimum subarray size with degree
p360
I107
sVmemory management least recently used
p361
I328
sVmathematical algorithms sieve of atkin
p362
I357
sVoperating system deadlocks
p363
I316
sVartificial intelligence naive bayes
p364
I768
sVgraph algorithms boruvka minimum spanning tree
p365
I249
sVunclassified smallest number to the left
p366
I120
sVmathematical algorithms segmented sieve of eratosthenes
p367
I362
sVmathematical algorithms divided differences
p368
I414
sVnetworking validate IP
p369
I655
sVcoding style ml
p370
I82
sVgame theory grundy numbers kayle
p371
I751
sVtree suffix array
p372
I578
sVdynamic programming longest common subsequence
p373
I213
sVscala project
p374
I386
sVcode design pattern
p375
I278
sVonline challenges test
p376
I714
sVoperating system memory management
p377
I327
sVcode computer graphics
p378
I160
sVgraph algorithms data structures
p379
I238
sVdynamic programming maximum sum increasing subsequence
p380
I180
sVcoding style typescript
p381
I77
sVcryptography sha
p382
I443
sVcomputational geometry sphere tetrahedron intersection
p383
I664
sVmathematical algorithms babylonian method
p384
I411
sVpascal windows
p385
I75
sVartificial intelligence gradient boosting trees
p386
I766
sVproxy virtual
p387
I286
sVtasks job
p388
I301
sVguides installation guides
p389
I25
sVgraph algorithms dijkstra shortest path
p390
I247
sVrandomized algorithms src
p391
I151
sVbacktracking test
p392
I800
sVbinary tree treap
p393
I582
sVpreorder left view
p394
I586
sVmathematical algorithms simpsons rule
p395
I377
sVgraph algorithms breadth first search
p396
I240
sVunclassified unique number
p397
I113
sVbit manipulation sum binary numbers
p398
I462
sVartificial intelligence SAT
p399
I759
sVruby windows
p400
I37
sVinorder right threaded
p401
I589
sVexponentiation power exponentiation by squaring
p402
I394
sVcoding style perl
p403
I83
sVImage Stitching img
p404
I787
sVoperations n th node linked list
p405
I563
sVmathematical algorithms euler totient
p406
I391
sVbit manipulation addition using bits
p407
I463
sVproject euler problem 067
p408
I736
sVunclassified leap year
p409
I111
sVcode selection algorithms
p410
I163
sVrandomized algorithms randomized quick sort
p411
I153
sVrandomized algorithms reservoir sampling
p412
I158
sVstring algorithms remove dups
p413
I681
sVmathematical algorithms src
p414
I340
sVOOP patterns adapter
p415
I304
sVcode square root decomposition
p416
I795
sVhashs bloom filter
p417
I649
sVsorting insertion sort
p418
I531
sVtree segment tree
p419
I626
sVcomputational geometry 2d line intersection
p420
I673
sVbacktracking permutations of string
p421
I814
sVtree b tree
p422
I617
sVgraph algorithms cycle undirected graph
p423
I244
sVutility src
p424
I171
sVmathematical algorithms fast fourier transform
p425
I426
sVmathematical algorithms pascal triangle
p426
I356
sVinstallation guides pascal
p427
I72
sVgraph algorithms maximum bipartite matching
p428
I229
sVstring algorithms z algorithm
p429
I694
sVstring algorithms src
p430
I679
sVcode networking
p431
I652
sVcryptography rsa digital signature
p432
I448
sVpath sum sum left
p433
I595
sVconcurrency producer consumer
p434
I337
sVcryptography columnar transposition cipher
p435
I452
sVcryptography porta cipher
p436
I447
sVproject euler problem 009
p437
I735
sVcode filters
p438
I479
sVcryptography test
p439
I434
sVartificial intelligence factorization machines
p440
I780
sVcosmos c++
p441
I2
sVgraph algorithms hopcroft karp algorithm
p442
I221
sVfilters gaussian filter
p443
I481
sVtraversal inorder
p444
I588
sVmultiway tree van emde boas tree
p445
I612
sVgraph algorithms astar algorithm
p446
I265
sVscala structures
p447
I385
sVproject euler problem 018
p448
I740
sVonline challenges project euler
p449
I716
sVunclassified tokenizer
p450
I105
sVcomputational geometry sutherland hodgeman clipping
p451
I665
sVobjects pack
p452
I6
sVgaussian elimination
p453
I384
sVdivide conquer karatsuba multiplication
p454
I503
sVtheory of computation src
p455
I430
sVruby mac
p456
I36
sVcosmos test
p457
I1
sVsorting bogo sort
p458
I523
sVtree binary tree
p459
I581
sVdesign pattern functional-patterns
p460
I310
sVartificial intelligence q learning
p461
I779
sVcoding style f#
p462
I84
sVsorting counting sort
p463
I517
sVdynamic programming rod cutting
p464
I185
sVcryptography affine cipher
p465
I455
sVspace partitioning tree segment tree
p466
I624
sVmathematical algorithms integer conversion
p467
I396
sVnetworking PacketSniffer
p468
I656
sVgraph algorithms test
p469
I216
sV.git logs
p470
I15
sVcosmos guides
p471
I24
sVunclassified jaccard similarity
p472
I110
sVdata structures queue
p473
I640
sVartificial intelligence nearest sequence memory
p474
I770
sVscala src
p475
I380
sVinstallation guides python pip
p476
I46
sVmathematical algorithms newton raphson method
p477
I390
sVmathematical algorithms tridiagonal matrix
p478
I424
sVmathematical algorithms delannoy number
p479
I358
sVgraph algorithms tarjan algorithm strongly connected components
p480
I268
sVsorting selection sort
p481
I516
sVbinary tree maximum height
p482
I598
sVsorting circle sort
p483
I509
sVcellular automaton src
p484
I141
sVdoubly linked list C
p485
I549
sVadapter Soldiers
p486
I305
sVmathematical algorithms greatest digit in number
p487
I401
sVinstallation guides java
p488
I60
sVstack reverse stack
p489
I630
sVcode cryptography
p490
I433
sVgame theory game of nim next best move
p491
I752
sV.git info
p492
I14
sVcode compression
p493
I483
sVimage processing Image Stitching
p494
I786
sVmathematical algorithms magic square
p495
I402
sVrefs heads
p496
I19
sVproject euler problem 014
p497
I731
sVproject euler problem 013
p498
I741
sVproject euler problem 012
p499
I742
sVproject euler problem 010
p500
I720
sVtasks gym
p501
I298
sVproject euler problem 019
p502
I745
sVbuilder builder
p503
I309
sVgraph algorithms steiner tree
p504
I269
sVmorning routine
p505
I300
sVcode bit manipulation
p506
I458
sVintegral src
p507
I273
sVmathematical algorithms pythagorean triplet
p508
I404
sVOOP patterns proxy
p509
I285
sVcomputational geometry area of polygon
p510
I669
sVstring algorithms morse code
p511
I684
sVb tree b tree C
p512
I620
sVscheduling first come first serve
p513
I321
sVoperating system test
p514
I314
sVmathematical algorithms lucky number
p515
I395
sVcellular automaton nobili cellular automata
p516
I148
sVdata structures test
p517
I535
sVqueue double ended queue
p518
I642
sVabstract stack cpp
p519
I637
sVbacktracking src
p520
I801
sVcode utility
p521
I167
sVsearch fuzzy search
p522
I710
sVjava linux
p523
I61
sVmathematical algorithms poisson sample
p524
I397
sVsearch test
p525
I703
sVgraph algorithms bipartite checking
p526
I236
sVsorting heap sort
p527
I518
sVheap priority queue
p528
I572
sVcomputational geometry bresenham line
p529
I668
sVmathematical algorithms smallest digit in number
p530
I415
sVpreorder right view
p531
I587
sVdata structures adjacency matrix C
p532
I239
sVconcurrency dining philosophers
p533
I331
sVproject euler problem 016
p534
I727
sVcosmos code
p535
I99
sVmathematical algorithms fibonacci number
p536
I349
sVconcurrency readers writers
p537
I332
sVbacktracking partitions of number
p538
I809
sVbacktracking n queen
p539
I808
sVbacktracking number of ways in maze
p540
I812
sVstring algorithms boyer moore algorithm
p541
I701
sVbinary tree make binary tree
p542
I600
sVsorting quick sort
p543
I532
sVtree Van Emde Boas Tree
p544
I580
sVgraph algorithms connected components
p545
I270
sVcode graph algorithms
p546
I215
sVjava mac
p547
I62
sVgo mac
p548
I70
sVstack infix to postfix
p549
I629
sVbacktracking knight tour
p550
I805
sVunclassified utilities
p551
I118
sVc++ mac
p552
I66
sVdivide conquer inversion count
p553
I499
sVdynamic programming src
p554
I178
sVbinary tree avl tree
p555
I610
sVgreedy algorithms test
p556
I124
sVcpp arrayStack
p557
I638
sVmathematical algorithms 2sum
p558
I419
sVdynamic programming longest increasing subsequence
p559
I199
sVgraph algorithms kuhn maximum matching
p560
I223
sVstring algorithms manachar algorithm
p561
I698
sVdivide conquer merge sort using divide and conquer
p562
I496
sVmathematical algorithms largrange polynomial
p563
I413
sVtheory of computation deterministic finite automaton
p564
I432
sVcircular linked list operations
p565
I553
sVdynamic programming edit distance
p566
I190
sVb tree two three tree
p567
I618
sVjava windows
p568
I63
sVcomputational geometry area of triangle
p569
I662
sVgreedy algorithms kruskal minimum spanning tree
p570
I131
sVsorting test
p571
I507
sVheap min heap
p572
I574
sVmathematical algorithms diophantine
p573
I410
sVtasks morning
p574
I299
sVoperations detect cycle
p575
I560
sVmathematical algorithms tower of hanoi
p576
I346
sVvirtual proxy
p577
I287
sVgraph algorithms hamiltonian path
p578
I262
sVproject euler problem 001
p579
I728
sVbit manipulation twice unique number
p580
I474
sVdata structures linked list
p581
I639
sVrandomized algorithms shuffle an array
p582
I154
sVdynamic programming min cost path
p583
I179
sVmathematical algorithms russian peasant multiplication
p584
I392
sVmathematical algorithms prime factors
p585
I341
sVcode string algorithms
p586
I677
sVmathematical algorithms coprime numbers
p587
I408
sVunclassified spiral printing
p588
I102
sVgreedy algorithms huffman coding
p589
I134
sVdynamic programming matrix chain multiplication
p590
I211
sVartificial intelligence gaussian mixture model
p591
I767
sVfalcon cosmos
p592
I0
sVruby linux
p593
I35
sVdata structures other
p594
I651
sVcompression test
p595
I484
sVobjects info
p596
I5
sVmultiway tree union find
p597
I614
sVmathematical algorithms factorial
p598
I427
sVoperations rotate
p599
I562
sVbacktracking subset sum
p600
I810
sVgraph algorithms bridge tree
p601
I231
sVmathematical algorithms reverse factorial
p602
I360
sVgraph algorithms transitive closure graph
p603
I226
sVgraph algorithms prim minimum spanning tree
p604
I230
sVbit manipulation sum equals xor
p605
I472
sVproxy protection
p606
I289
sVnetworking test
p607
I653
sVcosmos third party
p608
I22
sVgraph algorithms adjacency lists graph representation
p609
I255
sVdesign pattern OOP patterns
p610
I283
sVmathematical algorithms sieve of eratosthenes
p611
I365
sVgreedy algorithms fractional knapsack
p612
I127
sVdivide conquer Strassen matrix multiplication
p613
I500
sVmathematical algorithms binomial coefficient
p614
I345
sVpeterson algorithm for mutual exclusion peterson algorithm in c
p615
I334
sVcomputational geometry cohen sutherland lineclip
p616
I674
sVlogs refs
p617
I16
sVgraph algorithms biconnected components
p618
I245
sVsorting bucket sort
p619
I515
sVcompression lossy compression
p620
I491
sVartificial intelligence hierachical-clustering
p621
I792
sVpython linux
p622
I43
sV.git objects
p623
I4
sVgraph algorithms dinic maximum flow
p624
I246
sVdivide conquer x power y
p625
I501
sVtasks evening
p626
I302
sVutility test
p627
I168
sVdynamic programming maximum sum sub matrix
p628
I184
sVmathematical algorithms primality tests
p629
I350
sVcode theory of computation
p630
I429
sVoperating system shell
p631
I318
sVobserver java observer
p632
I293
sVsearch interpolation search
p633
I709
sVgreedy algorithms src
p634
I126
sVevening routine
p635
I303
sVheap pairing heap
p636
I570
sVcellular automaton langtons ant
p637
I143
sVkotlin linux
p638
I31
sVgraph algorithms cut vertices
p639
I220
sVscala main
p640
I381
sVartificial intelligence restricted boltzmann machine
p641
I773
sVgreedy algorithms dijkstra shortest path
p642
I137
sVsorting bead sort
p643
I533
sVgo windows
p644
I71
sVmathematical algorithms fractals
p645
I422
sVmathematical algorithms test
p646
I339
sVPacketSniffer img
p647
I657
sVOOP patterns builder
p648
I308
sVunclassified majority element
p649
I104
sVcryptography aes 128
p650
I440
sVjavascript mac
p651
I58
sVgraph algorithms bron kerbosch algorithm
p652
I264
sVstack sort stack
p653
I633
sVscheduling round robin scheduling
p654
I324
sVpriority queue leftist tree
p655
I573
sVmathematical algorithms multiply polynomial
p656
I370
sVrandomized algorithms karger minimum cut algorithm
p657
I157
sVcomputational geometry axis aligned bounding box collision
p658
I663
sVgraph algorithms karger minimum cut
p659
I253
sVartificial intelligence ISODATA Clustering
p660
I776
sVcellular automaton von neumann cellular automata
p661
I146
sVgraph algorithms maximum edge disjoint paths
p662
I243
sVartificial intelligence autoenncoder
p663
I765
sVsearch fibonacci search
p664
I706
sVsingly linked list operations
p665
I555
sVcomputational geometry quickhull
p666
I667
sVmultiway tree fenwick tree
p667
I616
sVartificial intelligence Neural Style Transfer
p668
I775
sVartificial intelligence Logistic Regression
p669
I772
sVcode game theory
p670
I748
sVnumerical analysis integral
p671
I272
sVgraph algorithms Bipartite check
p672
I222
sVsorting topological sort
p673
I526
sVsorting cycle sort
p674
I530
sVprimality tests miller rabin primality test
p675
I351
sVcode unclassified
p676
I100
sVbinary tree is balance
p677
I597
sVcode divide conquer
p678
I492
sVelixir linux
p679
I27
sVspace partitioning tree interval tree
p680
I623
sVbacktracking powerset
p681
I811
sVinstallation guides go
p682
I68
sVselection algorithms src
p683
I165
sVartificial intelligence test
p684
I754
sVbit manipulation lonely integer
p685
I461
sVinstallation guides swift
p686
I52
sVOOP patterns observer pattern
p687
I291
sVcomputational geometry src
p688
I661
sVgreedy algorithms warshall
p689
I130
sVpalindrome palindrome check
p690
I173
sVdivide conquer src
p691
I494
sVunclassified paint fill
p692
I109
sVcoding style php
p693
I79
sVcomputational geometry distance between points
p694
I675
sVstring algorithms suffix array
p695
I689
sVmake binary tree from inorder and postorder
p696
I601
sVdynamic programming longest palindromic substring
p697
I186
sVmathematical algorithms jacobi method
p698
I400
sVunclassified spiral print
p699
I114
sVcoding style pascal
p700
I98
sVnetworking determine endianess
p701
I658
sVselection algorithms median-of-medians
p702
I166
sVmathematical algorithms newman conway
p703
I359
sVunclassified fifteen puzzle
p704
I121
sVmathematical algorithms shuffle array
p705
I409
sV.git hooks
p706
I7
sVcosmos .git
p707
I3
sVbit manipulation invert bit
p708
I466
sVlossless compression huffman
p709
I490
sVjavascript windows
p710
I59
sVdynamic programming longest repeating subsequence
p711
I188
sVgraph algorithms hamiltonian cycle
p712
I235
sVartificial intelligence support vector machine
p713
I769
sVobserver network
p714
I294
sVmathematical algorithms catalan number
p715
I369
sVgraph algorithms fleury algorithm euler path
p716
I267
sVunclassified split list
p717
I122
sVc++ uncrustify tests
p718
I94
sVdivide conquer quick sort
p719
I504
sVdivide conquer closest pair of points
p720
I502
sVstring algorithms anagram search
p721
I691
sVdynamic programming knapsack
p722
I203
sVmathematical algorithms sum of digits
p723
I344
sVbinary tree diameter
p724
I593
sVartificial intelligence t distributed stochastic neighbor embedding
p725
I777
sVbinary tree minimum height
p726
I591
sVartificial intelligence neural network
p727
I757
sVmathematical algorithms next larger number
p728
I355
sVunclassified biggest of n numbers
p729
I106
sVbacktracking algorithm-x
p730
I806
sVshell C
p731
I319
sVmathematical algorithms log of factorial
p732
I343
sVmathematical algorithms exponentiation power
p733
I393
sVtree heap
p734
I569
sVbit manipulation src
p735
I460
sVgraph algorithms kruskal minimum spanning tree
p736
I228
sVtree tree
p737
I577
sVscheduling shortest seek time first
p738
I326
sVcomputational geometry graham scan
p739
I676
sVmathematical algorithms permutation lexicographic order
p740
I366
sVmathematical algorithms horner polynomial evaluation
p741
I389
sVnetworking src
p742
I654
sVcompression src
p743
I487
sVsorting shell sort
p744
I521
sVinstallation guides c++
p745
I64
sVdynamic programming largest sum contiguous subarray
p746
I208
sVgreedy algorithms minimum coins
p747
I132
sVc windows
p748
I41
sVheap soft heap
p749
I571
sVunclassified no operator addition
p750
I116
sVgraph algorithms cycle directed graph
p751
I261
sV.git refs
p752
I8
sVproject euler problem 008
p753
I719
sVbit manipulation test
p754
I459
sVpascal linux
p755
I73
sVdesign pattern iterator pattern
p756
I282
sVrunge kutt src
p757
I277
sVoperations push
p758
I557
sVbit manipulation xor swap
p759
I465
sVproject euler problem 002
p760
I717
sVproject euler problem 003
p761
I726
sVproject euler problem 004
p762
I722
sVproject euler problem 005
p763
I738
sVproject euler problem 006
p764
I723
sVproject euler problem 007
p765
I730
sVuncrustify tests output
p766
I95
sVbit manipulation subset generation
p767
I469
sVunclassified lapindrom checker
p768
I115
sVdynamic programming tiling problem
p769
I197
sVmathematical algorithms lucas theorem
p770
I363
sVdynamic programming longest common substring
p771
I198
sVsorting intro sort
p772
I527
sVlist skip list
p773
I550
sVdynamic programming numeric keypad problem
p774
I212
sVoperating system src
p775
I315
sVinstallation guides c
p776
I38
sVartificial intelligence a star
p777
I778
sVgreedy algorithms job sequencing
p778
I136
sVcode numerical analysis
p779
I271
sVelixir windows
p780
I29
sVtraversal preorder
p781
I585
sVsorting bubble sort
p782
I520
sVlist xor linked list
p783
I551
sVfilters median filter
p784
I482
sVdeadlocks bankers algorithm
p785
I317
sVdynamic programming egg dropping puzzle
p786
I192
sVoperations sort
p787
I564
sVmathematical algorithms gcd and lcm
p788
I347
sVmathematical algorithms fermats little theorem
p789
I423
sVc++ linux
p790
I65
sVbacktracking crossword puzzle
p791
I802
sVbit manipulation magic number
p792
I478
sVOOP patterns factory
p793
I306
s.