(dp0
Vbreadth
p1
(lp2
I240
asVmonte
p3
(lp4
I274
aI275
asVcode
p5
(lp6
I99
aI100
aI123
aI139
aI149
aI160
aI163
aI167
aI174
aI215
aI271
aI278
aI313
aI338
aI429
aI433
aI458
aI479
aI483
aI492
aI506
aI534
aI652
aI659
aI677
aI684
aI702
aI713
aI748
aI753
aI795
aI799
asVchain
p7
(lp8
I211
asVsimilarity
p9
(lp10
I110
asVhooks
p11
(lp12
I7
asVdynamic
p13
(lp14
I174
aI175
aI176
aI177
aI178
aI179
aI180
aI181
aI182
aI183
aI184
aI185
aI186
aI187
aI188
aI189
aI190
aI191
aI192
aI193
aI194
aI195
aI196
aI197
aI198
aI199
aI200
aI201
aI202
aI203
aI204
aI205
aI206
aI207
aI208
aI209
aI210
aI211
aI212
aI213
aI214
asV010
p15
(lp16
I720
asVprefix
p17
(lp18
I631
asVradix
p19
(lp20
I511
asVsleep
p21
(lp22
I514
asVcomputation
p23
(lp24
I429
aI430
aI431
aI432
asVgo
p25
(lp26
I68
aI69
aI70
aI71
aI97
asV019
p27
(lp28
I745
asVtotient
p29
(lp30
I391
asVcenters
p31
(lp32
I135
asVtaxicab
p33
(lp34
I421
asVinverse
p35
(lp36
I364
aI375
asViterator
p37
(lp38
I282
asVgraph
p39
(lp40
I194
aI215
aI216
aI217
aI218
aI219
aI220
aI221
aI222
aI223
aI224
aI225
aI226
aI226
aI227
aI228
aI229
aI230
aI231
aI232
aI233
aI234
aI235
aI236
aI237
aI238
aI240
aI241
aI242
aI243
aI244
aI244
aI245
aI246
aI247
aI248
aI248
aI249
aI250
aI251
aI252
aI253
aI254
aI254
aI255
aI255
aI256
aI257
aI258
aI259
aI260
aI261
aI261
aI262
aI263
aI264
aI265
aI266
aI266
aI267
aI268
aI269
aI270
asVexponentiation
p41
(lp42
I393
aI394
aI394
asVto
p43
(lp44
I120
aI354
aI498
aI596
aI629
aI631
asVneighbours
p45
(lp46
I763
asVswap
p47
(lp48
I465
asVth
p49
(lp50
I563
asVskip
p51
(lp52
I550
asVcentroid
p53
(lp54
I250
asVundirected
p55
(lp56
I244
asVdivision
p57
(lp58
I399
aI467
asVdigit
p59
(lp60
I206
aI401
aI415
asVqueen
p61
(lp62
I808
asVstring
p63
(lp64
I342
aI405
aI677
aI678
aI679
aI680
aI681
aI682
aI683
aI684
aI685
aI687
aI688
aI689
aI690
aI691
aI692
aI693
aI694
aI695
aI696
aI697
aI698
aI699
aI700
aI701
aI814
asVegyptian
p65
(lp66
I138
asVrod
p67
(lp68
I185
asVsimpsons
p69
(lp70
I377
asVcoprime
p71
(lp72
I408
asVknapsack
p73
(lp74
I127
aI203
asVbounding
p75
(lp76
I663
asVtridiagonal
p77
(lp78
I424
asVstrand
p79
(lp80
I747
asVpartitions
p81
(lp82
I807
aI809
asVmagic
p83
(lp84
I119
aI402
aI478
asVhamiltonian
p85
(lp86
I235
aI262
asVlisp
p87
(lp88
I88
asVknight
p89
(lp90
I805
asVlist
p91
(lp92
I122
aI536
aI547
aI548
aI548
aI549
aI550
aI550
aI551
aI551
aI552
aI552
aI553
aI554
aI554
aI555
aI563
aI596
aI639
aI641
asV012
p93
(lp94
I742
asVlarge
p95
(lp96
I687
asV013
p97
(lp98
I741
asVq
p99
(lp100
I779
asVquick
p101
(lp102
I153
aI504
aI532
asV014
p103
(lp104
I731
asVcorasick
p105
(lp106
I682
asVmos
p107
(lp108
I798
asVround
p109
(lp110
I324
aI325
aI325
asV016
p111
(lp112
I727
asVfence
p113
(lp114
I453
asVmiller
p115
(lp116
I351
asVprediction
p117
(lp118
I750
asVjump
p119
(lp120
I707
asV018
p121
(lp122
I740
asVcost
p123
(lp124
I179
aI202
asVdesign
p125
(lp126
I278
aI279
aI280
aI281
aI282
aI283
aI310
aI311
aI312
aI312
asVinsertion
p127
(lp128
I210
aI531
aI566
asVn
p129
(lp130
I106
aI234
aI368
aI563
aI808
asVcarlo
p131
(lp132
I274
aI275
asVmachines
p133
(lp134
I780
asVlinear
p135
(lp136
I708
aI762
asVintersection
p137
(lp138
I664
aI670
aI673
asVxor
p139
(lp140
I465
aI472
aI475
aI551
asVsub
p141
(lp142
I184
asV2sum
p143
(lp144
I419
asVsum
p145
(lp146
I177
aI180
aI184
aI204
aI208
aI344
aI462
aI472
aI495
aI541
aI594
aI595
aI595
aI810
asVlexicographic
p147
(lp148
I342
aI366
asVastar
p149
(lp150
I265
asVsteiner
p151
(lp152
I269
asVfractional
p153
(lp154
I127
asVincreasing
p155
(lp156
I180
aI199
aI209
asVmethod
p157
(lp158
I390
aI400
aI411
aI498
asVcoefficient
p159
(lp160
I183
aI345
asVhash
p161
(lp162
I650
asVdegree
p163
(lp164
I107
asVtags
p165
(lp166
I11
asVv
p167
(lp168
I336
asVcomponent
p169
(lp170
I791
asVequals
p171
(lp172
I472
asV020
p173
(lp174
I734
asVmodular
p175
(lp176
I375
asVobjects
p177
(lp178
I4
aI5
aI6
asVoperating
p179
(lp180
I313
aI314
aI315
aI316
aI318
aI320
aI327
aI330
asVfree
p181
(lp182
I416
asV102
p183
(lp184
I743
asVpath
p185
(lp186
I137
aI179
aI194
aI224
aI233
aI247
aI258
aI262
aI266
aI267
aI541
aI594
aI595
asVsieve
p187
(lp188
I357
aI362
aI365
asVfifteen
p189
(lp190
I121
asVchange
p191
(lp192
I205
asVbox
p193
(lp194
I189
aI663
asVpreorder
p195
(lp196
I259
aI585
aI586
aI587
aI602
asVsearch
p197
(lp198
I196
aI240
aI263
aI683
aI691
aI693
aI702
aI703
aI704
aI705
aI705
aI706
aI706
aI707
aI707
aI708
aI708
aI709
aI709
aI710
aI710
aI711
aI711
aI712
aI712
asVk
p199
(lp200
I135
aI258
aI763
aI794
asVlarger
p201
(lp202
I355
asVchans
p203
(lp204
I666
asVqueue
p205
(lp206
I322
aI572
aI573
aI640
aI641
aI641
aI642
aI642
aI643
aI643
aI644
aI645
aI645
aI646
aI646
aI647
aI647
asVpoisson
p207
(lp208
I397
asVpermutation
p209
(lp210
I366
asVautomaton
p211
(lp212
I139
aI140
aI141
aI142
aI143
aI144
aI145
aI146
aI147
aI148
aI432
asVkayle
p213
(lp214
I751
asVdiameter
p215
(lp216
I540
aI593
asVtasks
p217
(lp218
I297
aI298
aI299
aI301
aI302
asVshuffle
p219
(lp220
I154
aI409
asVconvolution
p221
(lp222
I417
asVtokenizer
p223
(lp224
I105
asVlempel-ziv-welch
p225
(lp226
I489
asVwin
p227
(lp228
I750
asVraphson
p229
(lp230
I390
asVreplace
p231
(lp232
I374
asVorder
p233
(lp234
I366
asVsupersequence
p235
(lp236
I200
asVtopological
p237
(lp238
I257
aI526
asVperceptron
p239
(lp240
I758
asVfrom
p241
(lp242
I155
aI259
aI601
aI602
asV0
p243
(lp244
I374
asVmst
p245
(lp246
I232
asVhanoi
p247
(lp248
I346
asVtwo
p249
(lp250
I618
asVpigeonhole
p251
(lp252
I522
asVperl
p253
(lp254
I83
asVautomata
p255
(lp256
I144
aI146
aI148
aI685
aI686
asVmemory
p257
(lp258
I327
aI328
aI329
aI329
aI770
aI771
asVbead
p259
(lp260
I533
asVrefs
p261
(lp262
I8
aI9
aI11
aI12
aI16
aI17
aI19
asVmatlab
p263
(lp264
I771
asVsort
p265
(lp266
I153
aI257
aI496
aI504
aI509
aI510
aI511
aI512
aI513
aI514
aI515
aI516
aI517
aI518
aI519
aI520
aI521
aI522
aI523
aI524
aI525
aI526
aI527
aI528
aI529
aI530
aI531
aI532
aI533
aI564
aI633
asVpalindrome
p267
(lp268
I169
aI170
aI170
aI172
aI173
aI173
aI181
aI210
aI692
aI695
asVdiamond
p269
(lp270
I162
asVerode
p271
(lp272
I788
asVnaive
p273
(lp274
I693
aI761
aI768
asVadjacency
p275
(lp276
I239
aI255
aI256
aI256
asVdiophantine
p277
(lp278
I410
asVfloyd
p279
(lp280
I242
asVoop
p281
(lp282
I283
aI284
aI285
aI291
aI292
aI295
aI304
aI306
aI308
asVstochastic
p283
(lp284
I777
asVquickhull
p285
(lp286
I667
asValigned
p287
(lp288
I663
asV008
p289
(lp290
I719
asVpangram
p291
(lp292
I699
asVsample
p293
(lp294
I397
asVdeadlocks
p295
(lp296
I316
aI317
asVkasai
p297
(lp298
I690
asVbits
p299
(lp300
I463
aI471
aI473
asVml
p301
(lp302
I82
asVprinting
p303
(lp304
I102
asVkotlin
p305
(lp306
I30
aI31
aI32
aI33
aI80
asVroot
p307
(lp308
I795
aI796
aI797
aI798
asVexample
p309
(lp310
I442
asVfibonacci
p311
(lp312
I349
aI706
asVhodgeman
p313
(lp314
I665
asVnearest
p315
(lp316
I763
aI770
aI771
asVmultiway
p317
(lp318
I543
aI544
aI545
aI611
aI612
aI613
aI614
aI615
aI616
asVstream
p319
(lp320
I155
aI373
aI643
asVscan
p321
(lp322
I676
asVstacking
p323
(lp324
I189
asVpermutations
p325
(lp326
I814
asVtable
p327
(lp328
I650
asVbellman
p329
(lp330
I251
asVsubstring
p331
(lp332
I186
aI198
aI695
asVcollision
p333
(lp334
I663
asVminimum
p335
(lp336
I107
aI125
aI131
aI132
aI133
aI157
aI202
aI210
aI227
aI228
aI230
aI249
aI253
aI591
asVnumbers
p337
(lp338
I106
aI367
aI368
aI373
aI403
aI408
aI421
aI425
aI428
aI462
aI687
aI751
asVscheduling
p339
(lp340
I195
aI320
aI321
aI322
aI322
aI323
aI324
aI324
aI325
aI326
asVspanning
p341
(lp342
I125
aI131
aI133
aI228
aI230
aI249
asVcounting
p343
(lp344
I517
asVautokey
p345
(lp346
I456
asVbogo
p347
(lp348
I523
asVgcd
p349
(lp350
I347
asVconvolutional
p351
(lp352
I793
asVdivided
p353
(lp354
I414
asVmachine
p355
(lp356
I769
aI773
asVwriters
p357
(lp358
I332
asVoptimal
p359
(lp360
I196
asVaxis
p361
(lp362
I663
aI671
asVcircular
p363
(lp364
I552
aI553
aI644
asVbaconian
p365
(lp366
I435
aI446
asVemde
p367
(lp368
I580
aI612
asVmax
p369
(lp370
I498
aI576
asVmapping
p371
(lp372
I329
asVmac
p373
(lp374
I28
aI32
aI36
aI40
aI44
aI50
aI54
aI58
aI62
aI66
aI70
aI74
asVbirthday
p375
(lp376
I156
asVmultiplication
p377
(lp378
I211
aI392
aI406
aI500
aI503
asVdata
p379
(lp380
I238
aI239
aI534
aI535
aI536
aI537
aI546
aI547
aI568
aI627
aI628
aI639
aI640
aI648
aI651
asVpostorder
p381
(lp382
I259
aI601
asVa
p383
(lp384
I778
aI804
asVacyclic
p385
(lp386
I266
asVbranches
p387
(lp388
I13
asVjohnson
p389
(lp390
I233
asVpostfix
p391
(lp392
I629
aI631
aI632
asVelement
p393
(lp394
I104
aI152
asVheight
p395
(lp396
I591
aI598
asValgorithms
p397
(lp398
I123
aI124
aI125
aI126
aI127
aI128
aI129
aI130
aI131
aI132
aI133
aI134
aI135
aI136
aI137
aI138
aI149
aI150
aI151
aI152
aI153
aI154
aI155
aI156
aI157
aI158
aI159
aI163
aI164
aI165
aI166
aI215
aI216
aI217
aI218
aI219
aI220
aI221
aI222
aI223
aI224
aI225
aI226
aI227
aI228
aI229
aI230
aI231
aI232
aI233
aI234
aI235
aI236
aI237
aI238
aI240
aI241
aI242
aI243
aI244
aI245
aI246
aI247
aI248
aI249
aI250
aI251
aI252
aI253
aI254
aI255
aI257
aI258
aI259
aI260
aI261
aI262
aI263
aI264
aI265
aI266
aI267
aI268
aI269
aI270
aI338
aI339
aI340
aI341
aI342
aI343
aI344
aI345
aI346
aI347
aI348
aI349
aI350
aI354
aI355
aI356
aI357
aI358
aI359
aI360
aI361
aI362
aI363
aI364
aI365
aI366
aI367
aI368
aI369
aI370
aI371
aI372
aI373
aI374
aI375
aI376
aI377
aI378
aI387
aI388
aI389
aI390
aI391
aI392
aI393
aI395
aI396
aI397
aI398
aI399
aI400
aI401
aI402
aI403
aI404
aI405
aI406
aI407
aI408
aI409
aI410
aI411
aI412
aI413
aI414
aI415
aI416
aI417
aI418
aI419
aI420
aI421
aI422
aI423
aI424
aI425
aI426
aI427
aI428
aI677
aI678
aI679
aI680
aI681
aI682
aI683
aI684
aI685
aI687
aI688
aI689
aI690
aI691
aI692
aI693
aI694
aI695
aI696
aI697
aI698
aI699
aI700
aI701
asVatomaton
p399
(lp400
I431
asVrepresentation
p401
(lp402
I255
aI256
asVegg
p403
(lp404
I192
asVbipartite
p405
(lp406
I222
aI229
aI236
asVoperations
p407
(lp408
I553
aI555
aI556
aI557
aI558
aI559
aI560
aI561
aI562
aI563
aI564
aI565
aI566
aI567
asVgrundy
p409
(lp410
I751
asVfeedback
p411
(lp412
I322
asVreservoir
p413
(lp414
I158
asVis
p415
(lp416
I418
aI542
aI592
aI597
aI605
asVusing
p417
(lp418
I463
aI496
aI641
aI646
asVmove
p419
(lp420
I752
asVbalanced
p421
(lp422
I635
asVbrain
p423
(lp424
I142
asVpascal
p425
(lp426
I72
aI73
aI74
aI75
aI98
aI356
asVcomputational
p427
(lp428
I659
aI660
aI661
aI662
aI663
aI664
aI665
aI666
aI667
aI668
aI669
aI670
aI671
aI672
aI673
aI674
aI675
aI676
asVsame
p429
(lp430
I542
aI605
asVconcurrency
p431
(lp432
I330
aI331
aI332
aI333
aI335
aI337
asVcsharp
p433
(lp434
I441
aI442
asVpeterson
p435
(lp436
I333
aI334
aI334
asVperfect
p437
(lp438
I361
asVbridges
p439
(lp440
I248
asVstyle
p441
(lp442
I76
aI77
aI78
aI79
aI80
aI81
aI82
aI83
aI84
aI85
aI86
aI87
aI88
aI89
aI90
aI91
aI92
aI93
aI97
aI98
aI775
asVexclusion
p443
(lp444
I333
aI334
asVimg
p445
(lp446
I657
aI787
asVprewittfilter
p447
(lp448
I782
asVfermats
p449
(lp450
I423
asVaffine
p451
(lp452
I455
asVsquaring
p453
(lp454
I394
asVlossless
p455
(lp456
I485
aI486
aI488
aI489
aI490
asVhashs
p457
(lp458
I648
aI649
aI650
asVpolicy
p459
(lp460
I312
asVtravelling
p461
(lp462
I232
asVmain
p463
(lp464
I381
aI382
asVimage
p465
(lp466
I781
aI782
aI783
aI784
aI785
aI786
aI786
aI787
aI788
asVtsp
p467
(lp468
I764
asVprime
p469
(lp470
I341
aI368
asVtypescript
p471
(lp472
I77
asVdna
p473
(lp474
I747
asVpython
p475
(lp476
I42
aI43
aI44
aI45
aI46
aI47
aI86
asVaho
p477
(lp478
I682
asVnewman
p479
(lp480
I359
asVflash
p481
(lp482
I510
asVrosalind
p483
(lp484
I746
aI747
asVcutting
p485
(lp486
I185
asVconquer
p487
(lp488
I492
aI493
aI494
aI495
aI496
aI496
aI497
aI498
aI499
aI500
aI501
aI502
aI503
aI504
aI505
asVtribonacci
p489
(lp490
I367
asV022
p491
(lp492
I737
asVsorted
p493
(lp494
I567
asVboruvka
p495
(lp496
I249
asV028
p497
(lp498
I721
asVinversion
p499
(lp500
I499
asVswapper
p501
(lp502
I477
asVwarshall
p503
(lp504
I130
aI242
asVbrians
p505
(lp506
I142
asVlevel
p507
(lp508
I322
asVporta
p509
(lp510
I447
asV2d
p511
(lp512
I671
aI673
asVmerge
p513
(lp514
I496
aI525
aI567
asVpeasant
p515
(lp516
I392
asVarraystack
p517
(lp518
I638
asVrepeating
p519
(lp520
I176
aI188
asVsubset
p521
(lp522
I177
aI204
aI469
aI810
asVsquare
p523
(lp524
I119
aI162
aI402
aI416
aI418
aI795
aI796
aI797
aI798
asVlogs
p525
(lp526
I15
aI16
asVweight
p527
(lp528
I194
asVgeneration
p529
(lp530
I469
asVcontiguous
p531
(lp532
I208
aI495
asVgaussian
p533
(lp534
I378
aI379
aI383
aI384
aI481
aI761
aI767
asVnumeric
p535
(lp536
I212
asVchallenges
p537
(lp538
I713
aI714
aI715
aI716
aI746
asVoperator
p539
(lp540
I116
asVatbash
p541
(lp542
I457
asVremove
p543
(lp544
I681
asVyear
p545
(lp546
I111
asVseparating
p547
(lp548
I671
asVsalesman
p549
(lp550
I232
asVmonitors
p551
(lp552
I335
aI336
aI336
asVdbscan
p553
(lp554
I756
asVnetwork
p555
(lp556
I294
aI757
aI790
aI793
asVfactors
p557
(lp558
I341
asVgradient
p559
(lp560
I766
asVrestricted
p561
(lp562
I773
asVfactory
p563
(lp564
I306
aI307
asVsolovay-strassen
p565
(lp566
I353
asVvector
p567
(lp568
I769
asVhill
p569
(lp570
I376
asVprint
p571
(lp572
I114
aI561
asVevaluation
p573
(lp574
I389
aI632
asVred
p575
(lp576
I544
aI613
asVtheory
p577
(lp578
I429
aI430
aI431
aI432
aI748
aI749
aI750
aI751
aI752
asVtransfer
p579
(lp580
I775
asVgreedy
p581
(lp582
I123
aI124
aI125
aI126
aI127
aI128
aI129
aI130
aI131
aI132
aI133
aI134
aI135
aI136
aI137
aI138
asVproxy
p583
(lp584
I285
aI286
aI287
aI288
aI289
aI290
asVboosting
p585
(lp586
I766
asVnetworking
p587
(lp588
I652
aI653
aI654
aI655
aI656
aI658
asVbyte
p589
(lp590
I477
asVinfix
p591
(lp592
I629
asVshortest
p593
(lp594
I137
aI200
aI233
aI247
aI258
aI326
asVcompression
p595
(lp596
I483
aI484
aI485
aI485
aI486
aI487
aI488
aI488
aI489
aI490
aI491
aI491
asV003
p597
(lp598
I726
asVmedian-of-medians
p599
(lp600
I166
asVgeometry
p601
(lp602
I659
aI660
aI661
aI662
aI663
aI664
aI665
aI666
aI667
aI668
aI669
aI670
aI671
aI672
aI673
aI674
aI675
aI676
asVbitonic
p603
(lp604
I201
asVprogramming
p605
(lp606
I174
aI175
aI176
aI177
aI178
aI179
aI180
aI181
aI182
aI183
aI184
aI185
aI186
aI187
aI188
aI189
aI190
aI191
aI192
aI193
aI194
aI195
aI196
aI197
aI198
aI199
aI200
aI201
aI202
aI203
aI204
aI205
aI206
aI207
aI208
aI209
aI210
aI211
aI212
aI213
aI214
asVfilter
p607
(lp608
I481
aI482
aI649
asVsignature
p609
(lp610
I448
asVfirst
p611
(lp612
I240
aI263
aI321
aI321
aI323
aI326
asVorigin
p613
(lp614
I10
aI18
asVinfo
p615
(lp616
I5
aI14
asVsingleton
p617
(lp618
I281
aI284
asVsuffix
p619
(lp620
I112
aI578
aI689
asVencoding
p621
(lp622
I449
asV004
p623
(lp624
I722
asVcoding
p625
(lp626
I76
aI77
aI78
aI79
aI80
aI81
aI82
aI83
aI84
aI85
aI86
aI87
aI88
aI89
aI90
aI91
aI92
aI93
aI97
aI98
aI134
asVnumber
p627
(lp628
I113
aI120
aI349
aI355
aI358
aI361
aI369
aI387
aI388
aI395
aI401
aI415
aI416
aI464
aI468
aI474
aI478
aI809
aI812
asVrank
p629
(lp630
I342
asVtransform
p631
(lp632
I426
asVrandomized
p633
(lp634
I149
aI150
aI151
aI152
aI153
aI153
aI154
aI155
aI156
aI157
aI158
aI159
asVarray
p635
(lp636
I154
aI191
aI409
aI578
aI689
asVsutherland
p637
(lp638
I665
aI674
asV009
p639
(lp640
I735
asVsize
p641
(lp642
I107
asVlittle
p643
(lp644
I423
asVmanagement
p645
(lp646
I327
aI328
aI329
asVheads
p647
(lp648
I12
aI19
asVobserver
p649
(lp650
I291
aI292
aI293
aI293
aI294
asVbloom
p651
(lp652
I649
asVsystem
p653
(lp654
I313
aI314
aI315
aI316
aI318
aI320
aI327
aI330
aI336
asVleast
p655
(lp656
I328
asVstack
p657
(lp658
I628
aI629
aI630
aI630
aI631
aI632
aI633
aI633
aI634
aI634
aI635
aI636
aI636
aI637
aI646
asVpriority
p659
(lp660
I572
aI573
asVpaint
p661
(lp662
I109
asVchecker
p663
(lp664
I115
aI680
aI692
aI697
aI699
asV2
p665
(lp666
I476
asVkarger
p667
(lp668
I157
aI253
asV.git
p669
(lp670
I3
aI4
aI7
aI8
aI13
aI14
aI15
asVrabin
p671
(lp672
I351
aI696
asVstructures
p673
(lp674
I238
aI239
aI385
aI534
aI535
aI536
aI537
aI546
aI547
aI568
aI627
aI628
aI639
aI640
aI648
aI651
asVjarvis
p675
(lp676
I672
asVshell
p677
(lp678
I318
aI319
aI521
asV067
p679
(lp680
I736
asVgym
p681
(lp682
I298
asVserve
p683
(lp684
I321
asVrsa
p685
(lp686
I437
aI448
asVlists
p687
(lp688
I255
aI256
aI256
asVthreaded
p689
(lp690
I589
asVmanipulation
p691
(lp692
I458
aI459
aI460
aI461
aI462
aI463
aI464
aI465
aI466
aI467
aI468
aI469
aI470
aI471
aI472
aI473
aI474
aI475
aI476
aI477
aI478
asVpacketsniffer
p693
(lp694
I656
aI657
asVquad
p695
(lp696
I622
asVstd
p697
(lp698
I412
asVdistance
p699
(lp700
I190
aI470
aI675
aI688
asVb
p701
(lp702
I617
aI618
aI619
aI619
aI620
aI620
asVthird
p703
(lp704
I22
aI23
asVautomorphic
p705
(lp706
I403
asVbag
p707
(lp708
I627
asVdfa
p709
(lp710
I399
asVlangtons
p711
(lp712
I143
asVneural
p713
(lp714
I757
aI775
aI790
aI793
asVtree
p715
(lp716
I125
aI131
aI133
aI196
aI228
aI230
aI231
aI237
aI249
aI269
aI512
aI537
aI538
aI538
aI539
aI539
aI540
aI541
aI542
aI543
aI543
aI544
aI544
aI545
aI568
aI569
aI573
aI577
aI577
aI578
aI579
aI580
aI580
aI581
aI581
aI582
aI583
aI583
aI584
aI591
aI592
aI592
aI593
aI594
aI596
aI597
aI598
aI599
aI600
aI600
aI601
aI602
aI603
aI603
aI604
aI604
aI605
aI606
aI606
aI607
aI608
aI608
aI609
aI610
aI610
aI611
aI611
aI612
aI612
aI613
aI613
aI614
aI615
aI615
aI616
aI616
aI617
aI617
aI618
aI618
aI619
aI619
aI620
aI620
aI621
aI621
aI622
aI622
aI623
aI623
aI624
aI624
aI625
aI625
aI626
aI626
aI760
asVproject
p717
(lp718
I386
aI716
aI717
aI718
aI719
aI720
aI721
aI722
aI723
aI724
aI725
aI726
aI727
aI728
aI729
aI730
aI731
aI732
aI733
aI734
aI735
aI736
aI737
aI738
aI739
aI740
aI741
aI742
aI743
aI744
aI745
asVsubsequence
p719
(lp720
I176
aI180
aI188
aI199
aI209
aI213
aI495
asVbiconnected
p721
(lp722
I245
asVkth
p723
(lp724
I152
asVdoubly
p725
(lp726
I548
aI549
aI596
asVand
p727
(lp728
I259
aI347
aI496
aI601
aI602
asVbridge
p729
(lp730
I231
asVkarp
p731
(lp732
I221
aI696
asVlinkedlist
p733
(lp734
I159
asVkutt
p735
(lp736
I276
aI277
asVcohen
p737
(lp738
I674
asVant
p739
(lp740
I143
asVmanachar
p741
(lp742
I698
asV026
p743
(lp744
I718
asVlargrange
p745
(lp746
I413
asVdisjoint
p747
(lp748
I243
asVseek
p749
(lp750
I326
asVlinked
p751
(lp752
I548
aI549
aI551
aI552
aI553
aI554
aI555
aI563
aI596
aI639
aI641
asVsat
p753
(lp754
I759
asVpaths
p755
(lp756
I243
asVconversion
p757
(lp758
I396
asVstrength
p759
(lp760
I680
asValgorithm-x
p761
(lp762
I806
asVmin
p763
(lp764
I179
aI498
aI574
asVbron
p765
(lp766
I264
asVmajority
p767
(lp768
I104
asVcaesar
p769
(lp770
I438
asVbest
p771
(lp772
I752
asVonline
p773
(lp774
I713
aI714
aI715
aI716
aI746
asVchannel
p775
(lp776
I225
asVbuffer
p777
(lp778
I644
asVzigzag
p779
(lp780
I590
asVsplay
p781
(lp782
I615
asVy
p783
(lp784
I501
asVboltzmann
p785
(lp786
I773
asVcipher
p787
(lp788
I435
aI438
aI439
aI445
aI446
aI447
aI450
aI451
aI452
aI453
aI454
aI455
aI456
aI457
asVconnected
p789
(lp790
I260
aI268
aI270
asVscripts
p791
(lp792
I21
asVmultiply
p793
(lp794
I370
asVcoin
p795
(lp796
I205
asVcellular
p797
(lp798
I139
aI140
aI141
aI142
aI143
aI144
aI144
aI145
aI146
aI146
aI147
aI148
aI148
asVmodel
p799
(lp800
I767
asVkd
p801
(lp802
I625
asVwindows
p803
(lp804
I29
aI33
aI37
aI41
aI45
aI51
aI55
aI59
aI63
aI67
aI71
aI75
asVaverage
p805
(lp806
I117
aI373
asVpartition
p807
(lp808
I181
asVcover
p809
(lp810
I241
asVvertices
p811
(lp812
I220
asVnobili
p813
(lp814
I148
asVpoints
p815
(lp816
I502
aI675
asVhamming
p817
(lp818
I470
asVconsumer
p819
(lp820
I337
asVselection
p821
(lp822
I128
aI163
aI164
aI165
aI166
aI516
asVprim
p823
(lp824
I133
aI230
asVjosephus
p825
(lp826
I108
asVdups
p827
(lp828
I681
asVendianess
p829
(lp830
I658
asVrandom
p831
(lp832
I155
aI159
aI789
asVrussian
p833
(lp834
I392
asVfuzzy
p835
(lp836
I710
asVsoldiers
p837
(lp838
I305
asVdecoding
p839
(lp840
I405
asVfind
p841
(lp842
I498
aI545
aI559
aI614
asVbacktracking
p843
(lp844
I799
aI800
aI801
aI802
aI803
aI804
aI805
aI806
aI807
aI808
aI809
aI810
aI811
aI812
aI813
aI814
asVmake
p845
(lp846
I600
aI601
aI602
aI606
asVcoloring
p847
(lp848
I254
aI813
asVbased
p849
(lp850
I312
asVproducer
p851
(lp852
I337
asVdistributed
p853
(lp854
I777
asVfulkerson
p855
(lp856
I219
asVblack
p857
(lp858
I544
aI613
asVpandigital
p859
(lp860
I387
asVcircle
p861
(lp862
I509
asVkaratsuba
p863
(lp864
I406
aI503
asVip
p865
(lp866
I655
asVdirected
p867
(lp868
I261
aI266
asVmixture
p869
(lp870
I767
asVtriangle
p871
(lp872
I356
aI662
asVcryptography
p873
(lp874
I433
aI434
aI435
aI436
aI437
aI438
aI439
aI440
aI443
aI445
aI446
aI447
aI448
aI449
aI450
aI451
aI452
aI453
aI454
aI455
aI456
aI457
asVmeans
p875
(lp876
I794
asVbetween
p877
(lp878
I675
asVbresenham
p879
(lp880
I668
asVlucky
p881
(lp882
I395
asVtrees
p883
(lp884
I766
asVm
p885
(lp886
I813
asVremotes
p887
(lp888
I9
aI10
aI17
aI18
asVones
p889
(lp890
I207
asVdelannoy
p891
(lp892
I358
asVlongest
p893
(lp894
I176
aI186
aI187
aI188
aI193
aI198
aI199
aI201
aI209
aI213
aI266
asV128
p895
(lp896
I440
aI441
asVmorse
p897
(lp898
I450
aI684
asVdp
p899
(lp900
I206
asVclosure
p901
(lp902
I226
asVaes
p903
(lp904
I440
aI441
aI441
aI442
asVstitching
p905
(lp906
I786
aI787
asVtwice
p907
(lp908
I474
asVtransposition
p909
(lp910
I452
asVmedian
p911
(lp912
I191
aI482
aI524
asVdijkstra
p913
(lp914
I137
aI247
asVc++
p915
(lp916
I2
aI64
aI65
aI66
aI67
aI93
aI94
asVmorning
p917
(lp918
I299
aI300
asVtriplet
p919
(lp920
I404
asVsha
p921
(lp922
I443
aI444
aI444
asVcommon
p923
(lp924
I198
aI200
aI209
aI213
asVlogistic
p925
(lp926
I772
asVactivity
p927
(lp928
I128
asVx
p929
(lp930
I501
asVview
p931
(lp932
I237
aI586
aI587
aI604
asVset
p933
(lp934
I193
aI194
aI473
aI807
asVfilters
p935
(lp936
I479
aI480
aI481
aI482
asVkeypad
p937
(lp938
I212
asVprincipal
p939
(lp940
I791
asVintelligence
p941
(lp942
I753
aI754
aI755
aI756
aI757
aI758
aI759
aI760
aI761
aI762
aI763
aI764
aI765
aI766
aI767
aI768
aI769
aI770
aI772
aI773
aI774
aI775
aI776
aI777
aI778
aI779
aI780
aI781
aI789
aI790
aI791
aI792
aI793
aI794
asVflip
p943
(lp944
I471
asVcomputer
p945
(lp946
I160
aI161
aI162
asVprimality
p947
(lp948
I350
aI351
aI351
aI352
aI352
aI353
aI353
asV036
p949
(lp950
I729
asV037
p951
(lp952
I733
asV034
p953
(lp954
I739
asVpolybius
p955
(lp956
I454
asVdetect
p957
(lp958
I560
asVways
p959
(lp960
I234
aI812
asVpattern
p961
(lp962
I278
aI279
aI280
aI281
aI281
aI282
aI282
aI283
aI284
aI291
aI310
aI311
aI311
aI312
aI683
aI693
asVartificial
p963
(lp964
I753
aI754
aI755
aI756
aI757
aI758
aI759
aI760
aI761
aI762
aI763
aI764
aI765
aI766
aI767
aI768
aI769
aI770
aI772
aI773
aI774
aI775
aI776
aI777
aI778
aI779
aI780
aI781
aI789
aI790
aI790
aI791
aI792
aI793
aI794
asVpowerset
p965
(lp966
I811
asVcrossword
p967
(lp968
I802
asVsmallest
p969
(lp970
I120
aI152
aI323
aI415
asVroutine
p971
(lp972
I300
aI303
asVsubarray
p973
(lp974
I107
aI208
asVinorder
p975
(lp976
I259
aI588
aI589
aI601
aI602
asVderangements
p977
(lp978
I371
asVrecently
p979
(lp980
I328
asVcomplement
p981
(lp982
I747
asVjavascript
p983
(lp984
I56
aI57
aI58
aI59
aI91
asVf#
p985
(lp986
I84
asVdeterministic
p987
(lp988
I432
asVjob
p989
(lp990
I136
aI195
aI301
asVcomb
p991
(lp992
I519
asVswift
p993
(lp994
I52
aI53
aI54
aI55
aI90
asVproblem
p995
(lp996
I108
aI197
aI212
aI717
aI718
aI719
aI720
aI721
aI722
aI723
aI724
aI725
aI726
aI727
aI728
aI729
aI730
aI731
aI732
aI733
aI734
aI735
aI736
aI737
aI738
aI739
aI740
aI741
aI742
aI743
aI744
aI745
aI813
asVfactorization
p997
(lp998
I780
asVc
p999
(lp1000
I38
aI39
aI40
aI41
aI85
aI239
aI256
aI319
aI325
aI334
aI549
aI620
aI686
asVinstallation
p1001
(lp1002
I25
aI26
aI30
aI34
aI38
aI42
aI46
aI48
aI52
aI56
aI60
aI64
aI68
aI72
asVreverse
p1003
(lp1004
I360
aI388
aI558
aI561
aI630
aI645
asVadapter
p1005
(lp1006
I304
aI305
asVreaders
p1007
(lp1008
I332
asVspace
p1009
(lp1010
I621
aI622
aI623
aI624
aI625
asVs
p1011
(lp1012
I227
asVprotection
p1013
(lp1014
I289
aI290
asVconsec
p1015
(lp1016
I207
asVembedding
p1017
(lp1018
I777
asVexpression
p1019
(lp1020
I635
asVboyer
p1021
(lp1022
I701
asVaa
p1023
(lp1024
I608
asVsphere
p1025
(lp1026
I664
asVpassword
p1027
(lp1028
I680
asVsampling
p1029
(lp1030
I158
asVlearning
p1031
(lp1032
I779
asVlinux
p1033
(lp1034
I27
aI31
aI35
aI39
aI43
aI47
aI49
aI53
aI57
aI61
aI65
aI69
aI73
asVpolynomial
p1035
(lp1036
I370
aI389
aI407
aI413
asVboas
p1037
(lp1038
I580
aI612
asVlipogram
p1039
(lp1040
I697
asV256
p1041
(lp1042
I444
asVjava
p1043
(lp1044
I60
aI61
aI62
aI63
aI92
aI292
aI293
asVaddition
p1045
(lp1046
I116
aI463
asVcome
p1047
(lp1048
I321
asVinvert
p1049
(lp1050
I466
asVthree
p1051
(lp1052
I618
asVtreap
p1053
(lp1054
I582
asVgenetic
p1055
(lp1056
I147
asVdropping
p1057
(lp1058
I192
asVcolumnar
p1059
(lp1060
I452
asVthrice
p1061
(lp1062
I464
asVdigits
p1063
(lp1064
I344
aI348
asVlife
p1065
(lp1066
I145
asVbit
p1067
(lp1068
I458
aI459
aI460
aI461
aI462
aI463
aI464
aI465
aI466
aI466
aI467
aI467
aI468
aI469
aI470
aI471
aI472
aI473
aI474
aI475
aI476
aI477
aI478
asVc#
p1069
(lp1070
I89
asVparenthesization
p1071
(lp1072
I182
asVconvert
p1073
(lp1074
I468
aI596
asVtraversal
p1075
(lp1076
I584
aI585
aI588
aI590
asVjacobi
p1077
(lp1078
I400
asVlevenshtein
p1079
(lp1080
I688
asVgraphics
p1081
(lp1082
I160
aI161
aI162
asVruby
p1083
(lp1084
I34
aI35
aI36
aI37
aI81
asVmulti
p1085
(lp1086
I322
asVexponential
p1087
(lp1088
I712
asVtetrahedron
p1089
(lp1090
I664
asVrat
p1091
(lp1092
I804
asVvalue
p1093
(lp1094
I475
asVremaining
p1095
(lp1096
I323
asVrope
p1097
(lp1098
I609
asVfunctional-patterns
p1099
(lp1100
I310
asVbalance
p1101
(lp1102
I597
asVrobin
p1103
(lp1104
I324
aI325
aI325
asVpack
p1105
(lp1106
I6
asVdemo
p1107
(lp1108
I288
asVvon
p1109
(lp1110
I146
asVavl
p1111
(lp1112
I610
asVevening
p1113
(lp1114
I302
aI303
asVin
p1115
(lp1116
I248
aI256
aI334
aI401
aI415
aI804
aI812
asVfacade
p1117
(lp1118
I295
aI296
asVregression
p1119
(lp1120
I762
aI772
asVbinary
p1121
(lp1122
I196
aI237
aI462
aI468
aI538
aI539
aI539
aI540
aI541
aI542
aI581
aI582
aI583
aI583
aI584
aI591
aI592
aI592
aI593
aI594
aI596
aI597
aI598
aI599
aI600
aI600
aI601
aI602
aI603
aI604
aI605
aI606
aI607
aI608
aI609
aI610
aI711
asVfleury
p1123
(lp1124
I267
asVdescent
p1125
(lp1126
I420
asVdilate
p1127
(lp1128
I788
asVgraham
p1129
(lp1130
I676
asVfractals
p1131
(lp1132
I422
asVroman
p1133
(lp1134
I354
asVsqrt
p1135
(lp1136
I364
asVfactorial
p1137
(lp1138
I214
aI343
aI360
aI427
aI505
asVrot13
p1139
(lp1140
I445
asVcanny
p1141
(lp1142
I784
asVsplit
p1143
(lp1144
I122
asVrunge
p1145
(lp1146
I276
aI277
asVlargest
p1147
(lp1148
I208
asVparty
p1149
(lp1150
I22
aI23
asVfinite
p1151
(lp1152
I431
aI432
aI685
aI686
asVinterpolation
p1153
(lp1154
I709
asVindependent
p1155
(lp1156
I193
aI194
asVleftist
p1157
(lp1158
I573
asVused
p1159
(lp1160
I328
asVclosest
p1161
(lp1162
I502
asVnim
p1163
(lp1164
I750
aI752
asVassignment
p1165
(lp1166
I225
asVnumerical
p1167
(lp1168
I271
aI272
aI274
aI276
asVrail
p1169
(lp1170
I453
asVtriangulation
p1171
(lp1172
I202
asV002
p1173
(lp1174
I717
asV001
p1175
(lp1176
I728
asVedges
p1177
(lp1178
I258
asV007
p1179
(lp1180
I730
asV006
p1181
(lp1182
I723
asV005
p1183
(lp1184
I738
asVvigenere
p1185
(lp1186
I439
asVclimbing
p1187
(lp1188
I376
asVvalidate
p1189
(lp1190
I655
asVphp
p1191
(lp1192
I79
asVeulerian
p1193
(lp1194
I224
asVcycle
p1195
(lp1196
I235
aI244
aI261
aI530
aI560
asV025
p1197
(lp1198
I732
asVfourier
p1199
(lp1200
I426
asVlucas
p1201
(lp1202
I363
asV024
p1203
(lp1204
I724
asVbuilder
p1205
(lp1206
I308
aI309
aI309
aI311
asVlapindrom
p1207
(lp1208
I115
asVanalysis
p1209
(lp1210
I271
aI272
aI274
aI276
aI791
asVdouble
p1211
(lp1212
I642
asVpatterns
p1213
(lp1214
I283
aI284
aI285
aI291
aI292
aI295
aI304
aI306
aI308
asVedge
p1215
(lp1216
I243
asVsolve
p1217
(lp1218
I803
asVgreatest
p1219
(lp1220
I401
asVcomponents
p1221
(lp1222
I245
aI260
aI268
aI270
asVrunningkey
p1223
(lp1224
I451
asV021
p1225
(lp1226
I725
asVthe
p1227
(lp1228
I120
asVleft
p1229
(lp1230
I120
aI237
aI586
aI595
asVtarjan
p1231
(lp1232
I268
asVstooge
p1233
(lp1234
I529
asVnewton
p1235
(lp1236
I390
aI407
asVisodata
p1237
(lp1238
I776
asVsobelfilter
p1239
(lp1240
I783
asVlossy
p1241
(lp1242
I491
asVinteger
p1243
(lp1244
I354
aI396
aI461
asVhuffman
p1245
(lp1246
I134
aI449
aI486
aI490
asVguides
p1247
(lp1248
I24
aI25
aI25
aI26
aI30
aI34
aI38
aI42
aI46
aI48
aI52
aI56
aI60
aI64
aI68
aI72
aI76
asVdivide
p1249
(lp1250
I492
aI493
aI494
aI495
aI496
aI496
aI497
aI498
aI499
aI500
aI501
aI502
aI503
aI504
aI505
asVcut
p1251
(lp1252
I157
aI220
aI227
aI253
asVdining
p1253
(lp1254
I331
asVadd
p1255
(lp1256
I398
asVtheorem
p1257
(lp1258
I363
aI423
asVinput
p1259
(lp1260
I96
asVtransformation
p1261
(lp1262
I217
aI252
asVeuler
p1263
(lp1264
I267
aI391
aI716
aI717
aI718
aI719
aI720
aI721
aI722
aI723
aI724
aI725
aI726
aI727
aI728
aI729
aI730
aI731
aI732
aI733
aI734
aI735
aI736
aI737
aI738
aI739
aI740
aI741
aI742
aI743
aI744
aI745
asVtests
p1265
(lp1266
I94
aI95
aI96
aI350
aI351
aI352
aI353
asVmarch
p1267
(lp1268
I672
asVchecking
p1269
(lp1270
I236
asVcatalan
p1271
(lp1272
I369
asVgame
p1273
(lp1274
I145
aI748
aI749
aI750
aI750
aI751
aI752
aI752
asVrotate
p1275
(lp1276
I562
asVsequencing
p1277
(lp1278
I136
asVfalcon
p1279
(lp1280
I0
asVuncrustify
p1281
(lp1282
I23
aI94
aI95
aI96
asVunique
p1283
(lp1284
I113
aI464
aI474
asVbabylonian
p1285
(lp1286
I411
asVloss
p1287
(lp1288
I750
asVsorting
p1289
(lp1290
I506
aI507
aI508
aI509
aI510
aI511
aI512
aI513
aI514
aI515
aI516
aI517
aI518
aI519
aI520
aI521
aI522
aI523
aI524
aI525
aI526
aI527
aI528
aI529
aI530
aI531
aI532
aI533
asVedit
p1291
(lp1292
I190
asVboolean
p1293
(lp1294
I182
asVt
p1295
(lp1296
I227
aI777
asVoutput
p1297
(lp1298
I95
asVtower
p1299
(lp1300
I346
asVsoft
p1301
(lp1302
I571
asVpythagorean
p1303
(lp1304
I404
asVmathematical
p1305
(lp1306
I338
aI339
aI340
aI341
aI342
aI343
aI344
aI345
aI346
aI347
aI348
aI349
aI350
aI354
aI355
aI356
aI357
aI358
aI359
aI360
aI361
aI362
aI363
aI364
aI365
aI366
aI367
aI368
aI369
aI370
aI371
aI372
aI373
aI374
aI375
aI376
aI377
aI378
aI387
aI388
aI389
aI390
aI391
aI392
aI393
aI395
aI396
aI397
aI398
aI399
aI400
aI401
aI402
aI403
aI404
aI405
aI406
aI407
aI408
aI409
aI410
aI411
aI412
aI413
aI414
aI415
aI416
aI417
aI418
aI419
aI420
aI421
aI422
aI423
aI424
aI425
aI426
aI427
aI428
asVclipping
p1307
(lp1308
I665
asVright
p1309
(lp1310
I587
aI589
asVneumann
p1311
(lp1312
I146
asVsequence
p1313
(lp1314
I187
aI201
aI770
aI771
asVhalfplane
p1315
(lp1316
I670
asVmirror
p1317
(lp1318
I606
asVhierachical-clustering
p1319
(lp1320
I792
asVmatching
p1321
(lp1322
I223
aI229
asVamicable
p1323
(lp1324
I425
asVwarnock
p1325
(lp1326
I497
asVnondeterministic
p1327
(lp1328
I431
asVfor
p1329
(lp1330
I333
aI334
asVscala
p1331
(lp1332
I379
aI380
aI381
aI382
aI383
aI385
aI386
asVdecision
p1333
(lp1334
I760
asVjaccard
p1335
(lp1336
I110
asV.github
p1337
(lp1338
I20
asVleap
p1339
(lp1340
I111
asVdecomposition
p1341
(lp1342
I250
aI795
aI796
aI797
aI798
asVkmp
p1343
(lp1344
I700
asVhoughtransform
p1345
(lp1346
I785
asVshaker
p1347
(lp1348
I528
asVpower
p1349
(lp1350
I393
aI394
aI476
aI501
asVtour
p1351
(lp1352
I805
asVkruskal
p1353
(lp1354
I125
aI131
aI228
asVprocessing
p1355
(lp1356
I781
aI782
aI783
aI784
aI785
aI786
aI788
asVbinomial
p1357
(lp1358
I183
aI345
aI575
asVelixir
p1359
(lp1360
I26
aI27
aI28
aI29
aI78
asVanagram
p1361
(lp1362
I691
asVfermat
p1363
(lp1364
I352
asVby
p1365
(lp1366
I394
asV040
p1367
(lp1368
I744
asVon
p1369
(lp1370
I687
asVgnome
p1371
(lp1372
I513
asVof
p1373
(lp1374
I106
aI145
aI194
aI234
aI343
aI344
aI346
aI357
aI362
aI365
aI368
aI405
aI429
aI430
aI431
aI432
aI476
aI502
aI662
aI669
aI750
aI752
aI807
aI809
aI812
aI814
asVunclassified
p1375
(lp1376
I100
aI101
aI102
aI103
aI104
aI105
aI106
aI107
aI108
aI109
aI110
aI111
aI112
aI113
aI114
aI115
aI116
aI117
aI118
aI119
aI120
aI121
aI122
aI556
asVstrassen
p1377
(lp1378
I500
asVneighbor
p1379
(lp1380
I777
asVtransitive
p1381
(lp1382
I226
asVcoins
p1383
(lp1384
I132
asVnsm
p1385
(lp1386
I771
asVconway
p1387
(lp1388
I359
asVpuzzle
p1389
(lp1390
I121
aI192
aI802
asVintegral
p1391
(lp1392
I272
aI273
asVcpp
p1393
(lp1394
I637
aI638
asVhopcroft
p1395
(lp1396
I221
asVpair
p1397
(lp1398
I502
asVweighted
p1399
(lp1400
I195
asVdetermine
p1401
(lp1402
I658
asVelementary
p1403
(lp1404
I144
asVnext
p1405
(lp1406
I355
aI752
asVutility
p1407
(lp1408
I167
aI168
aI169
aI171
aI172
asVclustering
p1409
(lp1410
I756
aI776
asVvan
p1411
(lp1412
I580
aI612
asVlog
p1413
(lp1414
I343
asVarea
p1415
(lp1416
I662
aI669
asVsegment
p1417
(lp1418
I624
aI626
asVsupport
p1419
(lp1420
I769
asVpairing
p1421
(lp1422
I570
asVspiral
p1423
(lp1424
I102
aI114
asVfast
p1425
(lp1426
I364
aI426
asVlonely
p1427
(lp1428
I461
asVfraction
p1429
(lp1430
I138
asVconways
p1431
(lp1432
I145
asVbiggest
p1433
(lp1434
I106
aI112
asVmaze
p1435
(lp1436
I804
aI812
asVbubble
p1437
(lp1438
I520
asVeratosthenes
p1439
(lp1440
I362
aI365
asVatkin
p1441
(lp1442
I357
asVdifferences
p1443
(lp1444
I414
asVford
p1445
(lp1446
I219
aI251
asVphilosophers
p1447
(lp1448
I331
asVbayes
p1449
(lp1450
I761
aI768
asVended
p1451
(lp1452
I642
asVheap
p1453
(lp1454
I518
aI569
aI570
aI570
aI571
aI571
aI572
aI574
aI574
aI575
aI575
aI576
aI576
asVelimination
p1455
(lp1456
I378
aI379
aI384
asVline
p1457
(lp1458
I668
aI673
asVwith
p1459
(lp1460
I107
aI374
asVcount
p1461
(lp1462
I234
aI348
aI372
aI473
aI499
asVpartitioning
p1463
(lp1464
I621
aI622
aI623
aI624
aI625
asVbucket
p1465
(lp1466
I515
asVmaximum
p1467
(lp1468
I180
aI184
aI194
aI219
aI223
aI229
aI243
aI246
aI475
aI495
aI598
asVkuhn
p1469
(lp1470
I223
asVsteepest
p1471
(lp1472
I420
asVhorner
p1473
(lp1474
I389
asVcosmos
p1475
(lp1476
I0
aI1
aI2
aI3
aI20
aI21
aI22
aI24
aI99
asVz
p1477
(lp1478
I694
asVrust
p1479
(lp1480
I48
aI49
aI50
aI51
aI87
asVdelete
p1481
(lp1482
I565
asVstrongly
p1483
(lp1484
I260
aI268
asVzeroes
p1485
(lp1486
I372
asVinterval
p1487
(lp1488
I623
asVmoore
p1489
(lp1490
I701
asVarmstrong
p1491
(lp1492
I428
asVtrie
p1493
(lp1494
I579
aI683
asVflow
p1495
(lp1496
I219
aI246
asVabstract
p1497
(lp1498
I636
aI637
asVtournament
p1499
(lp1500
I498
asVlineclip
p1501
(lp1502
I674
asVsingly
p1503
(lp1504
I554
aI555
asVan
p1505
(lp1506
I154
asVautoenncoder
p1507
(lp1508
I765
asVintro
p1509
(lp1510
I527
asVrule
p1511
(lp1512
I377
asVpip
p1513
(lp1514
I46
aI47
asVtiling
p1515
(lp1516
I197
asVtrailing
p1517
(lp1518
I372
asVcheck
p1519
(lp1520
I170
aI173
aI222
aI418
asVfill
p1521
(lp1522
I109
asVmutual
p1523
(lp1524
I333
aI334
asVparadox
p1525
(lp1526
I156
asVpolygon
p1527
(lp1528
I202
aI669
asVno
p1529
(lp1530
I116
aI207
asVfenwick
p1531
(lp1532
I616
asVforests
p1533
(lp1534
I789
asVvirtual
p1535
(lp1536
I286
aI287
asVother
p1537
(lp1538
I651
asV5
p1539
(lp1540
I374
asVdigital
p1541
(lp1542
I448
asVtest
p1543
(lp1544
I351
aI352
aI353
aI671
asVarithmetic
p1545
(lp1546
I687
asVnode
p1547
(lp1548
I159
aI563
aI599
asVstar
p1549
(lp1550
I778
asVpalindromic
p1551
(lp1552
I186
aI187
asVkerbosch
p1553
(lp1554
I264
asVvertex
p1555
(lp1556
I241
asVutilities
p1557
(lp1558
I118
asVpolynomials
p1559
(lp1560
I398
asVgifts
p1561
(lp1562
I307
asVpush
p1563
(lp1564
I557
asVunion
p1565
(lp1566
I545
aI614
asVmatrix
p1567
(lp1568
I184
aI211
aI217
aI239
aI252
aI424
aI500
asVsudoku
p1569
(lp1570
I803
asVlcm
p1571
(lp1572
I347
asValgorithm
p1573
(lp1574
I147
aI152
aI157
aI221
aI233
aI242
aI251
aI264
aI265
aI267
aI268
aI317
aI333
aI334
aI334
aI497
aI666
aI682
aI690
aI694
aI696
aI698
aI700
aI701
aI798
asVbottom
p1575
(lp1576
I604
asVbankers
p1577
(lp1578
I317
asVdaily
p1579
(lp1580
I296
aI297
asVdepth
p1581
(lp1582
I263
asVsegmented
p1583
(lp1584
I362
asVternary
p1585
(lp1586
I705
asVtime
p1587
(lp1588
I323
aI326
asVdinic
p1589
(lp1590
I246
asVhillclimber
p1591
(lp1592
I129
asVminimax
p1593
(lp1594
I774
asVserializer
p1595
(lp1596
I607
as.