ccopy_reg
_reconstructor
p0
(cpygtrie
CharTrie
p1
c__builtin__
object
p2
Ntp3
Rp4
(dp5
S'_root'
p6
g0
(cpygtrie
_Node
p7
g2
Ntp8
Rp9
(lp10
I4
aV.
p11
aVg
p12
aVi
p13
aVt
p14
aI01
aI3
aVh
p15
aVu
p16
aVb
p17
aI01
aI-7
aI3
aV1
p18
aV0
p19
aV2
p20
aI01
aI-2
aI2
ag20
aV8
p21
aI01
aI-3
aI1
ag19
aI01
aI2
ag18
ag19
aI01
aI-1
aI1
aV3
p22
aI01
aI-1
aI1
ag20
aI01
aI-1
aI1
aV4
p23
aI01
aI-1
aI1
aV6
p24
aI01
aI-1
aI1
aV9
p25
aI01
aI-1
aI1
ag21
aI01
aI-2
aI2
ag19
ag18
aI01
aI-1
aI1
ag22
aI01
aI-1
aI1
ag20
aI01
aI-1
aI1
aV5
p26
aI01
aI-1
aI1
ag23
aI01
aI-1
aI1
aV7
p27
aI01
aI-1
aI1
ag24
aI01
aI-1
aI1
ag25
aI01
aI-1
aI1
ag21
aI01
aI-2
aI2
ag22
ag23
aI01
aI-1
aI1
ag27
aI01
aI-1
aI1
ag24
aI01
aI-2
aI2
ag20
ag18
aI01
aI-1
aI1
ag19
aI01
aI-1
aI1
ag20
aI01
aI-1
aI1
ag26
aI01
aI-1
aI1
ag23
aI01
aI-1
aI1
ag24
aI01
aI-1
aI1
ag21
aI01
aI-2
aI2
ag23
ag19
aI01
aI-2
aI2
ag24
ag27
aI01
aI-3
aI1
ag20
aI01
aI3
aVs
p28
ag16
aVm
p29
aI01
aI-3
aI2
ag26
ag24
aI01
aI-2
aI1
aVd
p30
aI01
aI-2
aI1
ag26
aI01
aI-1
aI5
aVA
p31
aVr
p32
ag32
aVa
p33
aVy
p34
aI01
aI-4
aI8
aVl
p35
ag12
aVo
p36
ag32
ag13
ag14
ag15
ag29
aI01
aI-9
aI1
aVC
p37
aI01
aI4
ag33
aVn
p38
ag38
ag34
aI01
aI-4
aI9
ag35
ag16
ag28
ag14
aVe
p39
ag32
ag13
ag38
ag12
aI01
aI-10
aI9
aVB
p40
ag13
aVp
p41
ag33
ag32
ag14
ag13
ag14
ag39
aI01
aI-7
aI4
ag38
ag33
ag32
ag34
aI01
aI-5
aI3
ag36
ag33
ag28
aI01
aI-4
aI5
aVE
p42
ag32
ag36
ag30
ag39
aI01
aI-4
aI3
ag29
ag30
ag39
aI01
aI-4
aI6
aVD
p43
ag40
aVS
p44
ag37
ag31
aVN
p45
aI01
aI-6
aI2
aVI
p46
aVP
p47
aI01
aI-1
aI6
ag44
aVO
p48
ag43
ag31
aVT
p49
ag31
aI01
aI-6
aI4
ag29
ag33
ag12
ag39
aI01
aI-5
aI6
aVM
p50
ag31
ag49
aVL
p51
ag31
ag40
aI01
aI-5
aI5
ag39
ag30
ag13
ag33
ag38
aI01
aI-5
aI2
ag48
ag28
aI01
aI-3
aI6
ag51
ag13
ag38
ag39
ag33
ag32
aI01
aI-5
aI7
ag36
ag12
ag13
ag28
ag14
ag13
aVc
p52
aI01
aI-8
aI7
ag48
ag41
ag14
ag13
ag29
ag33
ag35
aI01
aI-6
aI2
ag48
ag47
aI01
aI-3
aI7
ag45
ag39
ag33
ag32
ag39
ag28
ag14
aI01
aI-5
aI8
ag13
ag12
ag15
ag17
ag36
ag16
ag32
ag28
aI01
aI-8
aI4
ag16
ag32
ag33
ag35
aI01
aI-6
aI13
ag47
ag33
ag52
aVk
p53
ag39
ag14
ag44
ag38
ag13
aVf
p54
ag54
ag39
ag32
aI01
aI-12
aI12
ag32
ag39
aVw
p55
ag13
ag14
ag14
aVF
p56
ag13
ag35
ag14
ag39
ag32
aI01
aI-13
aI3
ag44
ag31
ag49
aI01
aI-2
aI5
ag39
ag33
ag32
ag52
ag15
aI01
aI-5
aI4
ag14
ag34
ag35
ag39
aI01
aI-3
aI7
ag13
ag14
ag52
ag15
ag13
ag38
ag12
aI01
aI-7
aI6
ag32
ag33
ag28
ag28
ag39
ag38
aI01
aI-7
aI10
ag36
ag17
ag39
ag35
ag56
ag13
ag35
ag14
ag39
ag32
aI01
aI-9
aI6
ag35
ag30
ag13
ag39
ag32
ag28
aI01
aI-8
aI10
aVR
p57
ag39
ag12
ag32
ag39
ag28
ag28
ag13
ag36
ag38
aI01
aI-10
aI3
ag49
ag44
ag47
aI01
aI-2
aI7
ag32
ag33
ag38
ag28
ag54
ag39
ag32
aI01
aI-6
aI2
ag39
ag39
aI01
aI-4
aI3
aVV
p58
ag33
ag38
aI01
aI-3
aI1
ag33
aI01
aI1
ag33
aI01
aI-1
aI6
ag52
ag34
ag52
ag35
ag13
ag52
aI01
aI-5
aI6
ag14
ag13
aVv
p59
ag13
ag14
ag34
aI01
aI-7
aI7
ag17
ag28
ag14
ag32
ag33
ag52
ag14
aI01
aI-7
aI2
ag39
ag28
aI01
aI-2
aI6
ag30
ag33
ag41
ag14
ag39
ag32
aI01
aI-5
aI7
aVj
p60
ag33
ag52
ag39
ag38
ag52
ag34
aI01
aI-7
aI1
ag30
aI01
aI5
ag13
ag14
ag13
ag36
ag38
aI01
aI-7
aI5
ag54
ag54
ag13
ag38
ag39
aI01
aI-5
aI2
ag15
ag36
aI01
aI-2
aI7
ag29
ag13
ag52
ag33
ag17
ag35
ag39
aI01
aI-7
aI6
ag35
ag13
ag12
ag38
ag39
ag30
aI01
aI-5
aI7
ag12
ag36
ag32
ag13
ag14
ag15
ag29
aI01
aI1
ag28
aI01
aI-1
aI2
aV-
p61
aVx
p62
aI01
aI-10
aI1
ag38
aI01
aI6
ag33
ag35
ag34
ag28
ag13
ag28
aI01
aI-5
aI4
ag12
ag32
ag33
ag29
aI01
aI-5
aI1
ag14
aI01
aI-1
aI1
ag30
aI01
aI-2
aI9
ag28
ag28
ag13
ag12
ag38
ag29
ag39
ag38
ag14
aI01
aI-8
aI3
ag14
ag33
ag32
aI01
aI-4
aI9
ag32
ag13
ag14
ag15
ag29
ag39
ag14
ag13
ag52
aI01
aI-8
aI2
ag39
ag33
aI01
aI-2
aI3
ag32
ag33
ag34
aI01
aI5
ag44
ag14
ag33
ag52
ag53
aI01
aI-8
aI7
ag29
ag28
ag14
ag32
ag36
ag38
ag12
aI01
aI-7
aI8
ag14
ag13
ag54
ag13
ag52
ag13
ag33
ag35
aI01
aI-9
aI11
ag16
ag14
ag36
ag39
ag38
ag38
ag52
ag36
ag30
ag39
ag32
aI01
aI-8
aI3
ag53
ag39
ag34
aI01
aI-3
aI4
ag29
ag33
ag14
ag33
aI01
aI-1
aI2
ag36
ag38
aI01
aI-4
aI6
ag36
ag32
ag41
ag15
ag13
ag52
aI01
aI-10
aI4
ag14
ag53
ag13
ag38
aI01
aI-3
aI4
ag17
ag33
ag28
ag15
aI01
aI-4
aI6
ag36
ag29
ag33
ag14
ag36
ag38
aI01
aI-7
aI6
ag59
ag39
ag32
ag33
ag12
ag39
aI01
aI-5
aI1
ag35
aI01
aI-2
aI3
ag62
ag13
ag28
aI01
aI-4
aI1
ag52
aI01
aI4
ag33
ag32
ag35
ag36
aI01
aI-3
aI4
ag39
ag28
ag33
ag32
aI01
aI-4
aI5
ag14
ag33
ag35
ag33
ag38
aI01
aI-6
aI1
aV#
p63
aI01
aI-1
aI7
ag39
ag35
ag35
ag16
ag35
ag33
ag32
aI01
aI-6
aI6
ag38
ag14
ag32
ag36
ag13
ag30
aI01
aI-4
aI3
ag39
ag32
ag28
aI01
aI-6
aI5
ag13
ag41
ag15
ag39
ag32
aI01
aI-4
aI6
ag32
ag52
ag16
ag35
ag33
ag32
aI01
aI-4
aI2
ag35
ag39
aI01
aI-5
aI4
ag15
ag33
ag13
ag38
aI01
aI-2
aI7
ag35
ag35
ag39
ag38
ag12
ag39
ag28
aI01
aI-7
aI2
ag38
ag28
aI01
aI-1
aI2
ag12
ag39
aI01
aI-2
aI3
ag38
ag39
ag35
aI01
aI-5
aI3
ag39
ag52
ag53
aI01
aI3
ag13
ag38
ag12
aI01
aI-3
aI2
ag39
ag32
aI01
aI-6
aI2
aV+
p64
ag64
aI01
aI-2
aI7
ag35
ag13
ag41
ag41
ag13
ag38
ag12
aI01
aI-5
aI5
ag29
ag17
ag13
ag38
ag12
aI01
aI-6
aI5
ag36
ag28
ag39
ag28
ag14
aI01
aI-3
aI3
ag16
ag32
ag39
aI01
aI-6
aI10
ag36
ag39
ag54
ag54
ag13
ag52
ag13
ag39
ag38
ag14
aI01
aI-9
aI4
ag30
ag13
ag38
ag12
aI01
aI-3
aI1
ag39
aI01
aI-2
aI2
ag13
ag38
aI01
aI1
ag28
aI01
aI-3
aI3
ag15
ag39
ag38
aI01
aI-3
aI9
ag29
ag41
ag32
ag39
ag28
ag28
ag13
ag36
ag38
aI01
aI-7
aI7
ag16
ag14
ag33
ag14
ag13
ag36
ag38
aI01
aI2
ag33
ag35
aI01
aI-7
aI2
ag39
ag32
aI01
aI-4
aI6
ag35
ag39
ag29
ag39
ag38
ag14
aI01
aI-6
aI5
ag36
ag38
ag39
ag38
ag14
aI01
aI1
ag28
aI01
aI-7
aI1
ag17
aI01
aI-1
aI3
ag29
ag36
ag38
aI01
aI-3
aI1
ag39
aI01
aI-2
aI6
ag35
ag16
ag29
ag38
ag33
ag32
aI01
aI-5
aI6
ag35
ag13
ag28
ag13
ag36
ag38
aI01
aI-6
aI5
ag36
ag32
ag13
ag38
ag12
aI01
aI-6
aI9
ag38
ag52
ag16
ag32
ag32
ag39
ag38
ag52
ag34
aI01
aI-8
aI6
ag38
ag39
ag52
ag14
ag39
ag30
aI01
aI-6
aI4
aVq
p65
ag16
ag39
ag32
aI01
aI-4
aI5
ag28
ag16
ag29
ag39
ag32
aI01
aI-4
aI2
ag39
ag52
aI01
aI-3
aI7
ag14
ag13
ag12
ag16
ag36
ag16
ag28
aI01
aI-7
aI3
ag55
ag33
ag34
aI01
aI1
ag28
aI01
aI-4
aI7
ag59
ag39
ag32
ag28
ag13
ag36
ag38
aI01
aI-4
aI1
ag14
aI01
aI-3
aI7
ag36
ag35
ag16
ag14
ag13
ag36
ag38
aI01
aI2
ag33
ag35
aI01
aI-11
aI5
ag41
ag32
ag13
ag29
ag39
aI01
aI-5
aI4
ag28
ag29
ag36
ag28
aI01
aI-3
aI1
ag14
aI01
aI-2
aI6
ag32
ag33
ag28
ag13
ag52
ag53
aI01
aI-6
aI3
ag16
ag38
ag14
aI01
aI3
ag13
ag38
ag12
aI01
aI-6
aI3
ag59
ag39
ag32
aI01
aI-4
aI2
ag41
ag41
aI01
aI-2
aI5
ag28
ag15
ag33
ag32
ag41
aI01
aI-5
aI11
ag32
ag34
ag41
ag14
ag36
ag12
ag32
ag33
ag41
ag15
ag34
aI01
aI-10
aI7
ag36
ag28
ag28
ag55
ag36
ag32
ag30
aI01
aI-8
aI2
ag16
ag14
aI01
aI4
ag14
ag13
ag38
ag12
aI01
aI-6
aI4
ag34
ag52
ag35
ag39
aI01
aI-5
aI1
ag17
aI01
aI11
ag33
ag52
ag53
ag14
ag32
ag33
ag52
ag53
ag13
ag38
ag12
aI01
aI-9
aI5
ag36
ag38
ag13
ag33
ag38
aI01
aI-6
aI8
ag17
ag34
ag35
ag36
ag38
ag13
ag33
ag38
aI01
aI-8
aI1
ag12
aI01
aI-1
aI5
ag35
ag33
ag38
ag52
ag39
aI01
aI1
ag30
aI01
aI-6
aI5
ag38
ag53
ag39
ag32
ag28
aI01
aI-5
aI3
ag28
ag39
ag30
aI01
aI-3
aI3
ag34
ag39
ag28
aI01
aI-4
aI3
ag39
ag33
ag30
aI01
aI-2
aI2
ag28
ag14
aI01
aI-2
aI5
ag35
ag35
ag29
ag33
ag38
aI01
aI-5
aI5
ag14
ag55
ag39
ag39
ag38
aI01
aI-6
aI10
ag13
ag52
ag36
ag38
ag38
ag39
ag52
ag14
ag39
ag30
aI01
aI-9
aI5
ag12
ag12
ag39
ag28
ag14
aI01
aI-5
aI4
ag38
ag33
ag32
ag34
aI01
aI-3
aI5
ag36
ag29
ag13
ag33
ag35
aI01
aI-6
aI7
ag41
ag33
ag32
ag14
ag13
ag14
ag39
aI01
aI-7
aI6
ag32
ag14
ag15
ag30
ag33
ag34
aI01
aI-6
aI1
ag14
aI01
aI1
ag28
aI01
aI-1
aI4
ag36
ag38
ag13
ag52
aI01
aI-6
aI4
ag35
ag33
ag52
ag53
aI01
aI-3
aI3
ag36
ag36
ag29
aI01
aI-4
aI3
ag36
ag33
ag28
aI01
aI-2
aI2
ag12
ag36
aI01
aI-2
aI7
ag35
ag14
aVz
p66
ag29
ag33
ag38
ag38
aI01
aI-7
aI6
ag36
ag28
ag14
ag13
ag38
ag12
aI01
aI-5
aI4
ag35
ag39
ag33
ag38
aI01
aI-5
aI5
ag32
ag16
ag59
ag53
ag33
aI01
aI-5
aI6
ag16
ag38
ag30
ag13
ag38
ag12
aI01
aI-6
aI4
ag14
ag14
ag36
ag29
aI01
aI-4
aI3
ag34
ag39
ag32
aI01
aI-3
aI1
ag62
aI01
aI-2
aI4
ag32
ag33
ag13
ag38
aI01
aI-2
aI5
ag38
ag52
ag15
ag39
ag28
aI01
aI-6
aI4
ag13
ag33
ag38
ag28
aI01
aI-3
aI3
ag30
ag12
ag39
aI01
aI1
ag28
aI01
aI-5
aI5
ag39
ag33
ag30
ag14
ag15
aI01
aI-4
aI6
ag28
ag39
ag38
ag15
ag33
ag29
aI01
aI-7
aI2
ag36
ag38
aI01
aI-3
aI6
ag16
ag13
ag35
ag30
ag39
ag32
aI01
aI-5
aI4
ag52
ag53
ag39
ag14
aI01
aI-4
aI4
ag17
ag17
ag35
ag39
aI01
aI-4
aI4
ag54
ag54
ag39
ag32
aI01
aI-5
aI1
ag34
aI01
aI2
ag14
ag39
aI01
aI-4
aI4
ag39
ag30
ag13
ag14
aI01
aI-2
aI2
ag12
ag39
aI01
aI1
ag28
aI01
aI-4
aI7
ag12
ag34
ag41
ag14
ag13
ag33
ag38
aI01
aI-6
aI1
ag12
aI01
aI-2
aI8
ag29
ag17
ag39
ag30
ag30
ag13
ag38
ag12
aI01
aI-7
aI2
ag30
ag39
aI01
aI-3
aI5
ag35
ag13
ag62
ag13
ag32
aI01
aI-3
aI8
ag29
ag13
ag38
ag33
ag14
ag13
ag36
ag38
aI01
aI-9
aI5
ag39
ag29
ag39
ag38
ag14
aI01
aI3
ag33
ag32
ag34
aI01
aI-9
aI7
ag38
ag52
ag36
ag30
ag13
ag38
ag12
aI01
aI-6
aI7
ag30
ag13
ag33
ag38
ag39
ag28
ag28
aI01
aI-6
aI2
ag39
ag30
aI01
aI-4
aI5
ag65
ag16
ag33
ag35
ag28
aI01
aI-5
aI11
ag32
ag33
ag14
ag36
ag28
ag14
ag15
ag39
ag38
ag39
ag28
aI01
aI-11
aI4
ag16
ag35
ag39
ag32
aI01
aI3
ag13
ag33
ag38
aI01
aI-7
aI9
ag59
ag33
ag35
ag16
ag33
ag14
ag13
ag36
ag38
aI01
aI-8
aI5
ag39
ag38
ag13
ag38
ag12
aI01
aI-6
aI6
ag62
ag33
ag29
ag41
ag35
ag39
aI01
aI-5
aI8
ag41
ag32
ag39
ag28
ag28
ag13
ag36
ag38
aI01
aI-7
aI11
ag36
ag38
ag39
ag38
ag14
ag13
ag33
ag14
ag13
ag36
ag38
aI01
aI-4
aI1
ag35
aI01
aI-9
aI7
ag52
ag35
ag16
ag28
ag13
ag36
ag38
aI01
aI-9
aI5
ag30
ag33
ag13
ag35
ag34
aI01
aI-3
aI2
ag14
ag33
aI01
aI-3
aI8
ag39
ag33
ag30
ag35
ag36
ag52
ag53
ag28
aI01
aI-7
aI6
ag52
ag13
ag28
ag13
ag36
ag38
aI01
aI-5
aI10
ag36
ag29
ag41
ag36
ag28
ag13
ag14
ag13
ag36
ag38
aI01
aI-9
aI4
ag30
ag13
ag38
ag12
aI01
aI-6
aI4
ag12
ag32
ag39
ag39
aI01
aI-4
aI2
ag29
ag36
aI01
aI-2
aI6
ag35
ag33
ag38
ag38
ag36
ag34
aI01
aI-5
aI3
ag39
ag14
ag39
aI01
aI-4
aI3
ag41
ag14
ag15
aI01
aI-3
aI4
ag28
ag13
ag12
ag38
aI01
aI-3
aI4
ag52
ag39
ag38
ag14
aI01
aI-5
aI10
ag32
ag33
ag38
ag12
ag39
ag29
ag39
ag38
ag14
ag28
aI01
aI-10
aI4
ag14
ag39
ag52
ag14
aI01
aI-2
aI9
ag32
ag29
ag13
ag38
ag13
ag28
ag14
ag13
ag52
aI01
aI-5
aI1
ag39
aI01
aI-8
aI2
ag54
ag33
aI01
aI-2
aI7
ag13
ag33
ag29
ag39
ag14
ag39
ag32
aI01
aI-4
aI3
ag36
ag38
ag30
aI01
aI-5
aI3
ag12
ag13
ag14
aI01
aI2
ag33
ag35
aI01
aI-2
aI1
ag28
aI01
aI-4
aI9
ag54
ag54
ag39
ag32
ag39
ag38
ag52
ag39
ag28
aI01
aI-9
aI6
ag60
ag53
ag28
ag14
ag32
ag33
aI01
aI-6
aI4
ag35
ag33
ag14
ag39
aI01
aI-4
aI9
ag36
ag41
ag15
ag33
ag38
ag14
ag13
ag38
ag39
aI01
aI-9
aI3
ag38
ag13
ag52
aI01
aI-1
aI2
ag38
ag12
aI01
aI-4
aI6
ag28
ag60
ag36
ag13
ag38
ag14
aI01
aI-5
aI5
ag14
ag33
ag38
ag52
ag39
aI01
aI-4
aI7
ag32
ag13
ag17
ag16
ag14
ag39
ag30
aI01
aI-9
aI6
ag32
ag39
ag52
ag14
ag39
ag30
aI01
aI-6
aI6
ag59
ag13
ag28
ag13
ag36
ag38
aI01
aI-4
aI2
ag30
ag39
aI01
aI1
ag30
aI01
aI-6
aI5
ag36
ag16
ag17
ag35
ag34
aI01
aI-1
aI1
ag39
aI01
aI-5
aI2
ag38
ag33
aI01
aI-2
aI1
ag41
aI01
aI-1
aI7
ag32
ag36
ag41
ag41
ag13
ag38
ag12
aI01
aI-7
aI3
ag16
ag41
ag28
aI01
aI-3
aI6
ag34
ag38
ag33
ag29
ag13
ag52
aI01
aI-7
aI8
ag12
ag33
ag16
ag28
ag28
ag13
ag33
ag38
aI01
aI-6
aI2
ag29
ag39
aI01
aI-3
aI2
ag52
ag30
aI01
aI-2
aI7
ag39
ag36
ag29
ag39
ag14
ag32
ag34
aI01
aI-6
aI8
ag38
ag39
ag32
ag33
ag14
ag13
ag36
ag38
aI01
aI-6
aI3
ag14
ag13
ag52
aI01
aI-6
aI4
ag13
ag54
ag14
ag28
aI01
aI-4
aI1
ag36
aI01
aI-1
aI4
ag38
ag36
ag29
ag39
aI01
aI-4
aI4
ag32
ag33
ag41
ag15
aI01
aI3
ag13
ag52
ag28
aI01
aI-5
aI5
ag30
ag13
ag39
ag38
ag14
aI01
aI-5
aI3
ag15
ag33
ag29
aI01
aI-4
aI4
ag16
ag38
ag30
ag34
aI01
aI-4
aI6
ag39
ag33
ag14
ag39
ag28
ag14
aI01
aI-5
aI3
ag39
ag30
ag34
aI01
aI-5
aI5
ag16
ag13
ag30
ag39
ag28
aI01
aI-5
aI2
ag34
ag29
aI01
aI-3
aI4
ag54
ag33
ag28
ag14
aI01
aI-2
aI4
ag52
ag33
ag30
ag39
aI01
aI-3
aI6
ag14
ag36
ag32
ag13
ag33
ag35
aI01
aI-2
aI6
ag66
ag33
ag14
ag13
ag36
ag38
aI01
aI-7
aI1
ag34
aI01
aI-1
aI1
ag28
aI01
aI-5
aI4
ag35
ag52
ag36
ag38
aI01
aI-5
aI1
ag63
aI01
aI-1
aI5
ag39
ag32
ag29
ag33
ag14
aI01
aI1
ag28
aI01
aI-5
aI6
ag39
ag30
ag17
ag33
ag52
ag53
aI01
aI-6
aI3
ag38
ag52
ag39
aI01
aI-2
aI4
ag55
ag13
ag52
ag53
aI01
aI-6
aI5
ag13
ag38
ag13
ag14
ag39
aI01
aI-3
aI1
ag30
aI01
aI-2
aI3
ag32
ag28
ag14
aI01
aI-3
aI7
ag17
ag36
ag38
ag33
ag52
ag52
ag13
aI01
aI-7
aI2
ag35
ag35
aI01
aI-1
aI3
ag14
ag39
ag32
aI01
aI1
ag28
aI01
aI-5
aI5
ag54
ag14
ag39
ag39
ag38
aI01
aI-6
aI3
ag35
ag13
ag41
aI01
aI-2
aI3
ag33
ag28
ag15
aI01
aI-3
aI4
ag39
ag16
ag32
ag34
aI01
aI-4
aI3
ag36
ag34
ag30
aI01
aI-2
aI1
ag55
aI01
aI-3
aI2
ag36
ag32
aI01
aI4
ag39
ag28
ag14
ag28
aI01
aI-4
aI1
ag30
aI01
aI-2
aI5
ag16
ag32
ag13
ag39
ag32
aI01
aI-6
aI7
ag32
ag33
ag52
ag14
ag13
ag36
ag38
aI01
aI2
ag33
ag35
aI01
aI-5
aI3
ag33
ag35
ag28
aI01
aI-6
aI2
ag39
ag39
aI01
aI-2
aI2
ag36
ag29
aI01
aI-3
aI4
ag16
ag66
ag66
ag34
aI01
aI-3
aI7
ag35
ag53
ag39
ag32
ag28
ag36
ag38
aI01
aI-7
aI17
ag38
ag52
ag14
ag13
ag36
ag38
ag33
ag35
ag61
ag41
ag33
ag14
ag14
ag39
ag32
ag38
ag28
aI01
aI-19
aI2
ag13
ag28
aI01
aI-1
aI4
ag29
ag33
ag12
ag39
aI01
aI-3
aI1
ag12
aI01
aI-2
aI7
ag14
ag39
ag32
ag33
ag14
ag36
ag32
aI01
aI-7
aI1
ag38
aI01
aI8
ag52
ag32
ag39
ag33
ag28
ag13
ag38
ag12
aI01
aI-8
aI9
ag30
ag39
ag41
ag39
ag38
ag30
ag39
ag38
ag14
aI01
aI-9
aI3
ag54
ag13
ag62
aI01
aI-2
aI1
ag36
aI01
aI-2
aI5
ag36
ag32
ag30
ag39
ag32
aI01
aI-5
aI3
ag41
ag16
ag14
aI01
aI-3
aI7
ag28
ag39
ag32
ag14
ag13
ag36
ag38
aI01
aI-6
aI9
ag14
ag33
ag35
ag35
ag33
ag14
ag13
ag36
ag38
aI01
aI-10
aI3
ag14
ag32
ag36
aI01
aI-2
aI10
ag39
ag32
ag41
ag36
ag35
ag33
ag14
ag13
ag36
ag38
aI01
aI-8
aI7
ag28
ag39
ag52
ag14
ag13
ag36
ag38
aI01
aI-7
aI3
ag59
ag33
ag35
aI01
aI-4
aI8
ag35
ag35
ag13
ag12
ag39
ag38
ag52
ag39
aI01
aI-8
aI4
ag12
ag32
ag33
ag35
aI01
aI-3
aI2
ag39
ag32
aI01
aI-5
aI7
ag59
ag39
ag32
ag28
ag13
ag36
ag38
aI01
aI-3
aI1
ag39
aI01
aI-2
aI1
ag14
aI01
aI-6
aI22
ag15
ag13
ag39
ag32
ag33
ag52
ag15
ag13
ag52
ag33
ag35
ag61
ag52
ag35
ag16
ag28
ag14
ag39
ag32
ag13
ag38
ag12
aI01
aI-20
aI2
ag35
ag35
aI01
aI7
ag52
ag35
ag13
ag29
ag17
ag39
ag32
aI01
aI-10
aI6
ag16
ag54
ag54
ag29
ag33
ag38
aI01
aI-6
aI3
ag39
ag33
ag41
aI01
aI-1
aI2
ag30
ag28
aI01
aI-3
aI4
ag13
ag12
ag15
ag14
aI01
aI-5
aI3
ag33
ag28
ag15
aI01
aI1
ag28
aI01
aI-3
aI9
ag29
ag13
ag35
ag14
ag36
ag38
ag13
ag33
ag38
aI01
aI-8
aI4
ag29
ag13
ag38
ag12
aI01
aI-5
aI7
ag35
ag54
ag41
ag35
ag33
ag38
ag39
aI01
aI-7
aI3
ag38
ag36
ag13
aI01
aI-4
aI7
ag36
ag41
ag52
ag32
ag36
ag54
ag14
aI01
aI-6
aI4
ag32
ag38
ag39
ag32
aI01
aI-4
aI12
ag16
ag12
ag15
ag49
ag32
ag33
ag38
ag28
ag54
ag36
ag32
ag29
aI01
aI-12
aI6
ag30
ag12
ag39
ag29
ag33
ag38
aI01
aI-6
aI3
ag36
ag53
ag28
aI01
aI-5
aI1
ag53
aI01
aI4
ag33
ag34
ag35
ag39
aI01
aI-3
aI3
ag28
ag33
ag13
aI01
aI-3
aI7
ag32
ag33
ag14
ag28
ag16
ag17
ag33
aI01
aI-6
aI1
ag41
aI01
aI-1
aI3
ag12
ag39
ag32
aI01
aI-5
aI5
ag39
ag34
ag41
ag33
ag30
aI01
aI-4
aI6
ag32
ag17
ag36
ag28
ag52
ag15
aI01
aI-7
aI1
ag30
aI01
aI-1
aI2
ag29
ag41
aI01
aI-2
aI5
ag36
ag14
ag35
ag13
ag38
aI01
aI-5
aI7
ag38
ag33
ag41
ag28
ag33
ag52
ag53
aI01
aI-6
aI4
ag13
ag12
ag15
ag14
aI01
aI-5
aI6
ag32
ag16
ag28
ag53
ag33
ag35
aI01
aI-6
aI3
ag16
ag15
ag38
aI01
aI-2
aI2
ag14
ag14
aI01
aI-3
aI2
ag14
ag15
aI01
aI-3
aI7
ag60
ag33
ag52
ag52
ag33
ag32
ag30
aI01
aI-4
aI3
ag36
ag17
ag13
aI01
aI-4
aI4
ag32
ag59
ag13
ag28
aI01
aI-4
aI2
ag59
ag33
aI01
aI6
ag28
ag52
ag32
ag13
ag41
ag14
aI01
aI-9
aI3
ag16
ag29
ag41
aI01
aI-3
aI6
ag36
ag15
ag38
ag28
ag36
ag38
aI01
aI-5
aI6
ag28
ag39
ag41
ag15
ag16
ag28
aI01
aI-6
aI1
ag17
aI01
aI-3
aI1
ag29
aI01
aI2
ag33
ag52
aI01
aI4
ag15
ag13
ag38
ag39
aI01
aI1
ag28
aI01
aI-6
aI3
ag12
ag13
ag52
aI01
aI-3
aI2
ag13
ag38
aI01
aI-2
aI2
ag53
ag39
aI01
aI-2
aI6
ag60
ag36
ag32
ag13
ag14
ag34
aI01
aI-6
aI6
ag38
ag33
ag52
ag15
ag33
ag32
aI01
aI-4
aI6
ag12
ag39
ag29
ag39
ag38
ag14
aI01
aI-7
aI9
ag13
ag41
ag16
ag35
ag33
ag14
ag13
ag36
ag38
aI01
aI-10
aI5
ag41
ag41
ag13
ag38
ag12
aI01
aI-5
aI3
ag32
ag52
ag15
aI01
aI-3
aI10
ag14
ag15
ag39
ag29
ag33
ag14
ag13
ag52
ag33
ag35
aI01
aI-9
aI5
ag52
ag15
ag13
ag38
ag12
aI01
aI-5
aI3
ag32
ag13
ag62
aI01
aI-4
aI1
ag62
aI01
aI4
ag13
ag29
ag16
ag29
aI01
aI-5
aI2
ag66
ag39
aI01
aI-3
aI4
ag39
ag33
ag38
ag28
aI01
aI-3
aI3
ag32
ag12
ag39
aI01
aI-3
aI4
ag29
ag36
ag32
ag34
aI01
aI-4
aI4
ag30
ag13
ag33
ag38
aI01
aI11
ag61
ag36
ag54
ag61
ag29
ag39
ag30
ag13
ag33
ag38
ag28
aI01
aI-15
aI4
ag14
ag15
ag36
ag30
aI01
aI-5
aI6
ag13
ag62
ag14
ag16
ag32
ag39
aI01
aI-5
aI4
ag32
ag32
ag36
ag32
aI01
aI-4
aI4
ag35
ag35
ag39
ag32
aI01
aI-4
aI1
ag38
aI01
aI4
ag13
ag29
ag33
ag62
aI01
aI-2
aI2
ag16
ag29
aI01
aI-6
aI1
ag35
aI01
aI-1
aI4
ag36
ag32
ag28
ag39
aI01
aI-2
aI4
ag38
ag13
ag38
ag12
aI01
aI-5
aI2
ag59
ag39
aI01
aI-2
aI3
ag30
ag39
ag35
aI01
aI-2
aI4
ag16
ag35
ag33
ag32
aI01
aI-5
aI3
ag36
ag32
ag39
aI01
aI-3
aI6
ag38
ag13
ag14
ag36
ag32
ag28
aI01
aI-5
aI2
ag14
ag39
aI01
aI-4
aI2
ag28
ag14
aI01
aI-2
aI4
ag16
ag35
ag14
ag13
aI01
aI9
ag41
ag35
ag13
ag52
ag33
ag14
ag13
ag36
ag38
aI01
aI-7
aI1
ag34
aI01
aI-3
aI3
ag55
ag33
ag34
aI01
aI-6
aI4
ag14
ag16
ag33
ag35
aI01
aI-6
aI9
ag35
ag33
ag41
ag13
ag38
ag30
ag32
ag36
ag29
aI01
aI-7
aI7
ag32
ag12
ag32
ag33
ag38
ag12
ag39
aI01
aI-5
aI1
ag39
aI01
aI2
ag28
ag14
aI01
aI-2
aI1
ag32
aI01
aI-4
aI6
ag38
ag12
ag14
ag36
ag38
ag28
aI01
aI-7
aI2
ag52
ag29
aI01
aI-2
aI3
ag39
ag33
ag41
aI01
aI-1
aI2
ag28
ag14
aI01
aI-2
aI5
ag32
ag38
ag13
ag38
ag12
aI01
aI-6
aI11
ag62
ag13
ag52
ag36
ag12
ag32
ag33
ag41
ag15
ag13
ag52
aI01
aI-11
aI3
ag59
ag39
ag35
aI01
aI-1
aI7
ag38
ag28
ag15
ag14
ag39
ag13
ag38
aI01
aI-9
aI14
ag29
ag41
ag39
ag35
ag61
ag66
ag13
ag59
ag61
ag55
ag39
ag35
ag52
ag15
aI01
aI-14
aI2
ag54
ag14
aI01
aI3
ag13
ag28
ag14
aI01
aI-6
aI7
ag13
ag41
ag36
ag12
ag32
ag33
ag29
aI01
aI-6
aI2
ag28
ag41
aI01
aI-1
aI1
ag14
aI01
aI1
ag28
aI01
aI-3
aI2
ag54
ag39
aI01
aI-2
aI4
ag14
ag14
ag35
ag39
aI01
aI-4
aI2
ag38
ag39
aI01
aI2
ag33
ag32
aI01
aI-2
aI4
ag52
ag35
ag13
ag41
aI01
aI-5
aI3
ag53
ag39
ag30
aI01
aI4
ag35
ag13
ag28
ag14
aI01
aI-7
aI2
ag16
ag62
aI01
aI-4
aI3
ag36
ag28
ag28
aI01
aI1
ag34
aI01
aI-1
aI4
ag35
ag39
ag28
ag28
aI01
aI-6
aI1
ag12
aI01
aI1
ag28
aI01
aI-2
aI4
ag38
ag39
ag35
ag34
aI01
aI-3
aI4
ag12
ag39
ag28
ag14
aI01
aI-6
aI4
ag16
ag52
ag33
ag28
aI01
aI-2
aI2
ag53
ag34
aI01
aI-5
aI8
ag36
ag17
ag28
ag39
ag32
ag59
ag39
ag32
aI01
aI-6
aI5
ag60
ag39
ag52
ag14
ag28
aI01
aI-6
aI1
ag54
aI01
aI-1
aI1
ag38
aI01
aI2
ag39
ag28
aI01
aI-2
aI4
ag35
ag13
ag38
ag39
aI01
aI-5
aI9
ag41
ag39
ag32
ag33
ag14
ag13
ag36
ag38
ag28
aI01
aI-3
aI2
ag38
ag12
aI01
aI-3
aI2
ag36
ag32
aI01
aI-7
aI5
ag32
ag13
ag12
ag13
ag38
aI01
aI-4
aI3
ag30
ag39
ag32
aI01
aI-4
aI5
ag16
ag14
ag41
ag16
ag14
aI01
aI-5
aI4
ag14
ag15
ag39
ag32
aI01
aI-5
aI1
ag38
aI01
aI4
ag33
ag13
ag59
ag39
aI01
aI-4
aI6
ag39
ag33
ag32
ag39
ag28
ag14
aI01
aI-5
aI6
ag13
ag12
ag15
ag17
ag36
ag32
aI01
aI-6
aI4
ag16
ag32
ag33
ag35
aI01
aI-3
aI4
ag29
ag33
ag38
ag38
aI01
aI-5
aI5
ag14
ag55
ag36
ag32
ag53
aI01
aI3
ag13
ag38
ag12
aI01
aI-8
aI4
ag55
ag29
ag33
ag38
aI01
aI-3
aI3
ag14
ag36
ag38
aI01
aI-4
aI2
ag62
ag14
aI01
aI-3
aI2
ag13
ag29
aI01
aI-2
aI1
ag36
aI01
aI4
ag17
ag13
ag35
ag13
aI01
aI-4
aI2
ag30
ag39
aI01
aI-2
aI14
ag38
ag30
ag39
ag14
ag39
ag32
ag29
ag13
ag38
ag13
ag28
ag14
ag13
ag52
aI01
aI-15
aI2
ag28
ag29
aI01
aI-2
aI5
ag16
ag29
ag17
ag39
ag32
aI01
aI1
ag28
aI01
aI-4
aI4
ag39
ag32
ag13
ag52
aI01
aI2
ag33
ag35
aI01
aI-9
aI1
ag65
aI01
aI4
ag16
ag13
ag52
ag53
aI01
aI4
ag15
ag16
ag35
ag35
aI01
aI-7
aI2
ag33
ag30
aI01
aI-2
aI3
ag39
ag39
ag38
aI01
aI-2
aI2
ag16
ag39
aI01
aI-5
aI4
ag41
ag33
ag52
ag53
aI01
aI-2
aI2
ag13
ag32
aI01
aI3
ag13
ag38
ag12
aI01
aI-4
aI2
ag38
ag14
aI01
aI-3
aI9
ag35
ag13
ag38
ag30
ag32
ag36
ag29
ag13
ag52
aI01
aI-2
aI1
ag39
aI01
aI-8
aI8
ag38
ag30
ag13
ag12
ag13
ag14
ag33
ag35
aI01
aI-7
aI4
ag12
ag32
ag33
ag29
aI01
aI-5
aI4
ag28
ag52
ag33
ag35
aI01
aI-3
aI5
ag28
ag55
ag36
ag32
ag30
aI01
aI-6
aI5
ag32
ag33
ag30
ag36
ag62
aI01
aI-4
aI13
ag39
ag38
ag14
ag15
ag39
ag28
ag13
ag66
ag33
ag14
ag13
ag36
ag38
aI01
aI-13
aI2
ag14
ag34
aI01
aI-1
aI5
ag13
ag14
ag13
ag36
ag38
aI01
aI3
ag13
ag38
ag12
aI01
aI-3
aI1
ag28
aI01
aI-8
aI2
ag14
ag15
aI01
aI1
ag28
aI01
aI-2
aI4
ag14
ag39
ag32
ag38
aI01
aI1
ag28
aI01
aI-7
aI6
ag39
ag33
ag28
ag33
ag38
ag14
aI01
aI-5
aI8
ag32
ag52
ag39
ag41
ag14
ag32
ag36
ag38
aI01
aI-7
aI8
ag29
ag16
ag14
ag33
ag14
ag13
ag36
ag38
aI01
aI1
ag28
aI01
aI-9
aI1
ag35
aI01
aI-1
aI4
ag54
ag39
ag52
ag14
aI01
aI-5
aI6
ag14
ag39
ag32
ag28
ag36
ag38
aI01
aI-7
aI2
ag13
ag41
aI01
aI-1
aI8
ag12
ag39
ag36
ag38
ag15
ag36
ag35
ag39
aI01
aI-9
aI11
ag15
ag13
ag35
ag36
ag28
ag36
ag41
ag15
ag39
ag32
ag28
aI01
aI-10
aI1
ag41
aI01
aI-2
aI6
ag36
ag13
ag28
ag28
ag36
ag38
aI01
aI-4
aI3
ag38
ag14
ag28
aI01
aI-4
aI7
ag28
ag14
ag36
ag32
ag30
ag39
ag32
aI01
aI-5
aI3
ag54
ag13
ag62
aI01
aI-5
aI3
ag32
ag14
ag33
aI01
aI-3
aI6
ag35
ag34
ag17
ag13
ag16
ag28
aI01
aI-4
aI3
ag12
ag36
ag38
aI01
aI-3
aI6
ag38
ag36
ag29
ag13
ag33
ag35
aI01
aI1
ag28
aI01
aI-8
aI3
ag13
ag52
ag34
aI01
aI-4
aI3
ag55
ag39
ag32
aI01
aI3
ag28
ag39
ag14
aI01
aI-7
aI3
ag32
ag13
ag29
aI01
aI5
ag33
ag35
ag13
ag14
ag34
aI01
aI-5
aI1
ag39
aI01
aI-2
aI5
ag36
ag32
ag13
ag14
ag34
aI01
aI-5
aI6
ag38
ag52
ag13
ag41
ag33
ag35
aI01
aI-5
aI1
ag14
aI01
aI3
ag13
ag38
ag12
aI01
aI-6
aI8
ag39
ag30
ag13
ag52
ag14
ag13
ag36
ag38
aI01
aI-7
aI5
ag36
ag32
ag30
ag39
ag32
aI01
aI-5
aI3
ag54
ag13
ag62
aI01
aI-4
aI8
ag36
ag52
ag39
ag28
ag28
ag13
ag38
ag12
aI01
aI-7
aI4
ag17
ag35
ag39
ag29
aI01
aI-4
aI5
ag30
ag16
ag52
ag39
ag32
aI01
aI-5
aI8
ag12
ag32
ag33
ag29
ag29
ag13
ag38
ag12
aI01
aI-8
aI4
ag60
ag39
ag52
ag14
aI01
aI-4
aI7
ag14
ag39
ag52
ag14
ag13
ag36
ag38
aI01
aI-7
aI2
ag62
ag34
aI01
aI-4
aI3
ag16
ag28
ag15
aI01
aI-2
aI4
ag66
ag66
ag35
ag39
aI01
aI-5
aI10
ag34
ag14
ag15
ag33
ag12
ag36
ag32
ag39
ag33
ag38
aI01
aI-7
aI2
ag36
ag38
aI01
aI-6
aI1
ag28
aI01
aI7
ag33
ag29
ag41
ag35
ag13
ag38
ag12
aI01
aI-3
aI1
ag39
aI01
aI-3
aI1
ag39
aI01
aI-2
aI6
ag35
ag39
ag28
ag29
ag33
ag38
aI01
aI-7
aI4
ag52
ag33
ag35
ag33
aI01
aI-2
aI1
ag38
aI01
aI-2
aI8
ag15
ag39
ag30
ag16
ag35
ag13
ag38
ag12
aI01
aI-8
aI5
ag32
ag13
ag41
ag14
ag28
aI01
aI-6
aI5
ag39
ag33
ag32
ag52
ag15
aI01
aI-4
aI2
ag39
ag53
aI01
aI-2
aI5
ag12
ag29
ag39
ag38
ag14
aI01
aI2
ag39
ag30
aI01
aI-7
aI7
ag35
ag39
ag52
ag14
ag13
ag36
ag38
aI01
aI-7
aI8
ag65
ag16
ag39
ag38
ag52
ag13
ag38
ag12
aI01
aI-3
aI1
ag39
aI01
aI-6
aI8
ag41
ag33
ag32
ag33
ag14
ag13
ag38
ag12
aI01
aI-8
aI8
ag32
ag13
ag33
ag35
ag13
ag66
ag39
ag32
aI01
aI-7
aI2
ag59
ag39
aI01
aI-3
aI1
ag14
aI01
aI-2
aI4
ag13
ag39
ag59
ag39
aI01
aI-3
aI2
ag66
ag39
aI01
aI-2
aI8
ag29
ag13
ag35
ag33
ag32
ag13
ag14
ag34
aI01
aI-7
aI5
ag41
ag28
ag36
ag38
ag28
aI01
aI-6
aI7
ag12
ag38
ag33
ag14
ag16
ag32
ag39
aI01
aI-7
aI4
ag38
ag12
ag35
ag34
aI01
aI-1
aI4
ag39
ag14
ag36
ag38
aI01
aI-8
aI2
ag15
ag33
aI01
aI3
ag53
ag39
ag32
aI01
aI-4
aI3
ag39
ag35
ag35
aI01
aI-3
aI5
ag16
ag54
ag54
ag35
ag39
aI01
aI-5
aI6
ag36
ag32
ag14
ag39
ag28
ag14
aI01
aI-7
aI3
ag53
ag13
ag41
aI01
aI-3
aI7
ag29
ag33
ag35
ag35
ag39
ag28
ag14
aI01
aI-7
aI4
ag35
ag39
ag39
ag41
aI01
aI-4
aI3
ag36
ag32
ag14
aI01
aI3
ag13
ag38
ag12
aI01
aI-3
aI2
ag39
ag30
aI01
aI-4
aI14
ag35
ag36
ag59
ag33
ag34
ag61
ag28
ag14
ag32
ag33
ag28
ag28
ag39
ag38
aI01
aI-13
aI2
ag59
ag39
aI01
aI-3
aI2
ag54
ag14
aI01
aI-3
aI3
ag65
ag32
ag14
aI01
aI-2
aI6
ag16
ag33
ag32
ag13
ag38
ag12
aI01
aI-3
aI1
ag39
aI01
aI-5
aI5
ag41
ag13
ag32
ag33
ag35
aI01
aI-4
aI3
ag33
ag52
ag39
aI01
aI-2
aI5
ag38
ag38
ag13
ag38
ag12
aI01
aI-6
aI3
ag35
ag13
ag14
aI01
aI-2
aI2
ag33
ag34
aI01
aI-3
aI4
ag15
ag39
ag32
ag39
aI01
aI-5
aI2
ag32
ag52
aI01
aI-2
aI2
ag16
ag17
aI01
aI5
ag33
ag32
ag32
ag33
ag34
aI01
aI-5
aI8
ag28
ag39
ag65
ag16
ag39
ag38
ag52
ag39
aI01
aI-6
aI1
ag14
aI01
aI-2
aI5
ag14
ag32
ag13
ag38
ag12
aI01
aI-7
aI4
ag30
ag36
ag53
ag16
aI01
aI-4
aI4
ag54
ag54
ag13
ag62
aI01
aI-4
aI1
ag29
aI01
aI-1
aI5
ag41
ag41
ag36
ag32
ag14
aI01
aI-4
aI10
ag39
ag32
ag28
ag39
ag65
ag16
ag39
ag38
ag52
ag39
aI01
aI-11
aI8
ag14
ag15
ag39
ag32
ag35
ag33
ag38
ag30
aI01
aI-9
aI4
ag14
ag33
ag52
ag53
aI01
aI3
ag13
ag38
ag12
aI01
aI-5
aI1
ag32
aI01
aI-2
aI5
ag39
ag13
ag38
ag39
ag32
aI01
aI-4
aI5
ag39
ag41
ag39
ag28
ag14
aI01
aI-6
aI1
ag30
aI01
aI-1
aI8
ag36
ag52
ag15
ag33
ag28
ag14
ag13
ag52
aI01
aI-7
aI3
ag36
ag12
ag39
aI01
aI-4
aI4
ag32
ag13
ag38
ag12
aI01
aI-3
aI7
ag16
ag52
ag14
ag16
ag32
ag39
ag28
aI01
aI-7
aI3
ag39
ag33
ag29
aI01
aI-2
aI4
ag38
ag12
ag14
ag15
aI01
aI-5
aI3
ag33
ag38
ag30
aI01
aI-3
aI5
ag36
ag38
ag12
ag35
ag34
aI01
aI-6
aI3
ag34
ag35
ag39
aI01
aI-4
aI4
ag55
ag13
ag54
ag14
aI01
aI-3
aI2
ag33
ag41
aI01
aI3
ag41
ag39
ag32
aI01
aI-6
aI5
ag34
ag28
ag14
ag39
ag29
aI01
aI-6
aI5
ag32
ag33
ag17
ag13
ag38
aI01
aI-3
aI3
ag30
ag13
ag62
aI01
aI-3
aI2
ag13
ag35
aI01
aI-2
aI2
ag38
ag53
aI01
aI-1
aI3
ag30
ag36
ag29
aI01
aI4
ag13
ag66
ag39
ag30
aI01
aI-8
aI5
ag41
ag15
ag28
ag36
ag38
aI01
aI-5
aI1
ag14
aI01
aI-2
aI6
ag39
ag33
ag30
ag39
ag32
ag28
aI01
aI-5
aI6
ag52
ag39
ag38
ag14
ag35
ag34
aI01
aI-6
aI1
ag30
aI01
aI-1
aI2
ag54
ag28
aI01
aI-2
aI7
ag29
ag33
ag13
ag38
ag13
ag38
ag12
aI01
aI-6
aI4
ag36
ag14
ag39
ag28
aI01
aI-3
aI2
ag59
ag39
aI01
aI-4
aI12
ag41
ag32
ag39
ag28
ag39
ag38
ag14
ag33
ag14
ag13
ag36
ag38
aI01
aI-11
aI6
ag39
ag33
ag14
ag13
ag38
ag12
aI01
aI-6
aI4
ag35
ag33
ag52
ag39
aI01
aI-5
aI7
ag28
ag39
ag32
ag59
ag36
ag13
ag32
aI01
aI-6
aI7
ag14
ag32
ag13
ag52
ag14
ag39
ag30
aI01
aI-8
aI5
ag59
ag39
ag32
ag28
ag39
aI01
aI-6
aI4
ag13
ag12
ag15
ag14
aI01
aI-4
aI4
ag36
ag17
ag13
ag38
aI01
aI-3
aI1
ag30
aI01
aI-1
aI3
ag29
ag33
ag38
aI01
aI-3
aI2
ag36
ag14
aI01
aI-2
aI2
ag41
ag39
aI01
aI-2
aI6
ag28
ag33
ag35
ag13
ag38
ag30
aI01
aI-6
aI5
ag16
ag14
ag13
ag38
ag39
aI01
aI-4
aI2
ag38
ag30
aI01
aI-3
aI3
ag14
ag18
ag22
aI01
aI-2
aI3
ag33
ag14
ag39
aI01
aI-5
aI2
ag28
ag33
aI01
aI-2
aI6
ag16
ag28
ag28
ag13
ag33
ag38
aI01
aI-4
aI1
ag14
aI01
aI-2
aI2
ag17
ag34
aI01
aI-2
aI2
ag35
ag39
aI01
aI-2
aI3
ag38
ag12
ag39
aI01
aI-2
aI7
ag38
ag13
ag38
ag12
ag53
ag39
ag34
aI01
aI-10
aI5
ag16
ag28
ag13
ag38
ag12
aI01
aI-3
aI2
ag39
ag30
aI01
aI-3
aI8
ag14
ag13
ag35
ag13
ag14
ag13
ag39
ag28
aI01
aI-3
aI1
ag34
aI01
aI-6
aI5
ag38
ag13
ag65
ag16
ag39
aI01
aI-3
aI2
ag36
ag38
aI01
aI-3
aI8
ag52
ag32
ag16
ag28
ag14
ag13
ag54
ag34
aI01
aI-7
aI9
ag35
ag33
ag28
ag28
ag13
ag54
ag13
ag39
ag30
aI01
aI-10
aI8
ag30
ag13
ag32
ag39
ag52
ag14
ag39
ag30
aI01
aI-10
aI1
ag14
aI01
aI6
ag33
ag62
ag13
ag52
ag33
ag17
aI01
aI-5
aI3
ag28
ag53
ag28
aI01
aI-3
aI4
ag32
ag60
ag33
ag38
aI01
aI-4
aI3
ag17
ag35
ag39
aI01
aI-3
aI2
ag12
ag28
aI01
aI-3
aI3
ag39
ag28
ag14
aI01
aI1
ag28
aI01
aI-3
aI5
ag32
ag38
ag33
ag32
ag34
aI01
aI-5
aI9
ag14
ag32
ag33
ag15
ag39
ag30
ag32
ag36
ag38
aI01
aI-10
aI3
ag13
ag29
ag39
aI01
aI-2
aI4
ag35
ag13
ag38
ag12
aI01
aI-5
aI1
ag15
aI01
aI3
ag13
ag32
ag30
aI01
aI-3
aI4
ag32
ag13
ag52
ag39
aI01
aI-3
aI5
ag39
ag33
ag30
ag39
ag30
aI01
aI-4
aI1
ag39
aI01
aI-3
aI1
ag39
aI01
aI3
ag36
ag32
ag34
aI01
aI-1
aI2
ag39
ag29
aI01
aI-6
aI1
ag36
aI01
aI9
ag41
ag36
ag35
ag36
ag12
ag13
ag52
ag33
ag35
aI01
aI-9
aI7
ag53
ag39
ag38
ag13
ag66
ag39
ag32
aI01
aI-7
aI2
ag16
ag32
aI01
aI6
ag38
ag33
ag29
ag39
ag38
ag14
aI01
aI-8
aI5
ag14
ag13
ag39
ag38
ag14
aI01
aI-5
aI3
ag55
ag39
ag32
aI01
aI-4
aI12
ag32
ag13
ag33
ag38
ag12
ag16
ag35
ag33
ag14
ag13
ag36
ag38
aI01
aI-7
aI2
ag35
ag39
aI01
aI-5
aI4
ag41
ag35
ag39
ag14
aI01
aI-4
aI7
ag17
ag36
ag38
ag33
ag52
ag52
ag13
aI01
aI-7
aI1
ag39
aI01
aI-1
aI8
ag30
ag13
ag33
ag12
ag36
ag38
ag33
ag35
aI01
aI-9
aI6
ag33
ag13
ag35
ag13
ag38
ag12
aI01
aI-5
aI6
ag59
ag39
ag32
ag28
ag33
ag35
aI01
aI-4
aI5
ag35
ag35
ag13
ag38
ag12
aI01
aI-7
aI7
ag38
ag28
ag13
ag14
ag13
ag59
ag39
aI01
aI-5
aI8
ag41
ag36
ag28
ag13
ag14
ag13
ag36
ag38
aI01
aI-8
aI4
ag54
ag36
ag32
ag29
aI01
aI5
ag33
ag14
ag13
ag36
ag38
aI01
aI-12
aI3
ag39
ag33
ag41
aI01
aI-2
aI1
ag39
aI01
aI1
ag28
aI01
aI-4
aI4
ag55
ag13
ag52
ag39
aI01
aI-3
aI1
ag36
aI01
aI-2
aI9
ag34
ag41
ag39
ag28
ag52
ag32
ag13
ag41
ag14
aI01
aI-10
aI4
ag55
ag13
ag14
ag15
aI01
aI-2
aI1
ag38
aI01
aI4
ag30
ag36
ag55
ag28
aI01
aI-6
aI3
ag33
ag34
ag28
aI01
aI-2
aI6
ag32
ag28
ag15
ag33
ag35
ag35
aI01
aI-5
aI4
ag38
ag36
ag52
ag53
aI01
aI-6
aI6
ag32
ag13
ag14
ag39
ag32
ag28
aI01
aI-6
aI5
ag39
ag13
ag12
ag15
ag14
aI01
aI2
ag39
ag30
aI01
aI-8
aI1
ag59
aI01
aI6
ag13
ag32
ag14
ag16
ag33
ag35
aI01
aI-5
aI2
ag39
ag55
aI01
aI-2
aI6
ag12
ag39
ag38
ag39
ag32
ag39
aI01
aI-7
aI7
ag33
ag35
ag13
ag30
ag33
ag14
ag39
aI01
aI-5
aI2
ag16
ag39
aI01
aI-3
aI1
ag38
aI01
aI-2
aI5
ag39
ag52
ag14
ag36
ag32
aI01
aI-4
aI6
ag32
ag14
ag13
ag52
ag39
ag28
aI01
aI-4
aI2
ag39
ag62
aI01
aI-5
aI2
ag36
ag38
aI01
aI-3
aI1
ag34
aI01
aI3
ag39
ag33
ag32
aI01
aI-4
aI1
ag62
aI01
aI2
ag36
ag32
aI01
aI-3
aI1
ag66
aI01
aI5
ag13
ag12
ag66
ag33
ag12
aI01
aI-5
aI5
ag39
ag32
ag36
ag39
ag28
aI01
absS'_sorted'
p67
I00
sb.