ccopy_reg
_reconstructor
p0
(cpygtrie
CharTrie
p1
c__builtin__
object
p2
Ntp3
Rp4
(dp5
S'_root'
p6
g0
(cpygtrie
_Node
p7
g2
Ntp8
Rp9
(lp10
I13
aV.
p11
aVg
p12
aVi
p13
aVt
p14
aV 
p15
aVb
p16
aVr
p17
aVa
p18
aVn
p19
aVc
p20
aVh
p21
aVe
p22
aVs
p23
aI01
aI-8
aI4
ag13
ag19
aVf
p24
aVo
p25
aI01
aI-4
aI5
ag21
ag25
ag25
aVk
p26
ag23
aI01
aI-5
aI4
aVl
p27
ag25
ag12
ag23
aI01
aI-4
aI7
ag25
ag16
aVj
p28
ag22
ag20
ag14
ag23
aI01
aI-7
aI4
ag17
ag22
ag24
ag23
aI01
aI-9
aI19
aVI
p29
aVm
p30
ag18
ag12
ag22
ag15
aVS
p31
ag14
ag13
ag14
ag20
ag21
ag13
ag19
ag12
ag15
ag13
ag30
ag12
aI01
aI-19
aI20
aVO
p32
ag32
aVP
p33
ag15
aVp
p34
ag18
ag14
ag14
ag22
ag17
ag19
ag23
ag15
ag18
aVd
p35
ag18
ag34
ag14
ag22
ag17
aI01
aI-7
aI7
ag16
aVu
p36
ag13
ag27
ag35
ag22
ag17
aI01
aI-7
aI6
ag24
ag18
ag20
ag18
ag35
ag22
aI01
aI-3
aI4
ag14
ag25
ag17
aVy
p37
aI01
aI-7
aI16
ag25
ag16
ag23
ag22
ag17
aVv
p38
ag22
ag17
ag15
ag34
ag18
ag14
ag14
ag22
ag17
ag19
aI01
aI-7
aI4
ag28
ag18
ag38
ag18
aI01
aI-13
aI5
ag34
ag17
ag25
aVx
p39
ag37
aI01
aI-5
aI17
ag23
ag13
ag19
ag12
ag27
ag22
ag14
ag25
ag19
ag15
ag34
ag18
ag14
ag14
ag22
ag17
ag19
aI01
aI-30
aI17
ag33
ag18
ag20
ag26
ag22
ag14
ag31
ag19
ag13
ag24
ag24
ag22
ag17
ag15
ag13
ag30
ag12
aI01
aI-17
aI30
ag18
ag17
ag14
ag13
ag24
ag13
ag20
ag13
ag18
ag27
ag15
ag13
ag19
ag14
ag22
ag27
ag27
ag13
ag12
ag22
ag19
ag20
ag22
ag15
ag18
ag15
ag23
ag14
ag18
ag17
aI01
aI-5
aI24
ag17
ag14
ag13
ag24
ag13
ag20
ag13
ag18
ag27
ag15
ag19
ag22
ag36
ag17
ag18
ag27
ag15
ag19
ag22
ag14
aVw
p40
ag25
ag17
ag26
aI01
aI-24
aI11
ag36
ag14
ag25
ag22
ag19
ag19
ag20
ag25
ag35
ag22
ag17
aI01
aI-12
aI28
ag20
ag25
ag19
ag38
ag25
ag27
ag36
ag14
ag13
ag25
ag19
ag18
ag27
ag15
ag19
ag22
ag36
ag17
ag18
ag27
ag15
ag19
ag22
ag14
ag40
ag25
ag17
ag26
aI01
aI-28
aI17
aVD
p41
aVB
p42
ag31
aVC
p43
aVA
p44
aVN
p45
ag15
ag43
ag27
ag36
ag23
ag14
ag22
ag17
ag13
ag19
ag12
aI01
aI-17
aI22
ag12
ag18
ag36
ag23
ag23
ag13
ag18
ag19
ag15
ag30
ag13
ag39
ag14
ag36
ag17
ag22
ag15
ag30
ag25
ag35
ag22
ag27
aI01
aI-13
aI11
ag19
ag18
ag13
ag38
ag22
ag15
ag16
ag18
ag37
ag22
ag23
aI01
aI-19
aI22
ag17
ag18
ag35
ag13
ag22
ag19
ag14
ag15
ag16
ag25
ag25
ag23
ag14
ag13
ag19
ag12
ag15
ag14
ag17
ag22
ag22
ag23
aI01
aI-23
aI22
ag24
ag18
ag20
ag14
ag25
ag17
ag13
aVz
p46
ag18
ag14
ag13
ag25
ag19
ag15
ag30
ag18
ag20
ag21
ag13
ag19
ag22
ag23
aI01
aI-22
aI18
ag29
ag31
ag32
ag41
ag44
aVT
p47
ag44
ag15
ag43
ag27
ag36
ag23
ag14
ag22
ag17
ag13
ag19
ag12
aI01
aI-18
aI16
ag13
ag30
ag18
ag12
ag22
ag15
ag34
ag17
ag25
ag20
ag22
ag23
ag23
ag13
ag19
ag12
aI01
aI-16
aI7
ag26
ag15
ag30
ag22
ag18
ag19
ag23
aI01
aI-5
aI18
ag45
ag22
ag18
ag17
ag22
ag23
ag14
ag15
ag45
ag22
ag13
ag12
ag21
ag16
ag25
ag36
ag17
ag23
aI01
aI-20
aI7
ag30
ag13
ag19
ag13
ag30
ag18
ag39
aI01
aI-7
aI3
ag23
ag17
ag20
aI01
aI-2
aI21
ag36
ag34
ag34
ag25
ag17
ag14
ag15
ag38
ag22
ag20
ag14
ag25
ag17
ag15
ag30
ag18
ag20
ag21
ag13
ag19
ag22
aI01
aI-22
aI3
ag47
ag31
ag33
aI01
aI-3
aI11
ag19
ag18
ag13
ag38
ag22
ag15
ag16
ag18
ag37
ag22
ag23
aI01
aI-10
aI22
ag22
ag18
ag17
ag22
ag23
ag14
ag15
ag23
ag22
aVq
p48
ag36
ag22
ag19
ag20
ag22
ag15
ag30
ag22
ag30
ag25
ag17
ag37
aI01
aI-21
aI12
ag36
ag17
ag18
ag27
ag15
ag19
ag22
ag14
ag40
ag25
ag17
ag26
aI01
aI-14
aI10
ag48
ag15
ag27
ag22
ag18
ag17
ag19
ag13
ag19
ag12
aI01
aI-10
aI28
ag34
ag17
ag13
ag19
ag20
ag13
ag34
ag18
ag27
ag15
ag20
ag25
ag30
ag34
ag25
ag19
ag22
ag19
ag14
ag15
ag18
ag19
ag18
ag27
ag37
ag23
ag13
ag23
aI01
aI-27
aI9
ag22
ag17
ag20
ag22
ag34
ag14
ag17
ag25
ag19
aI01
aI-10
aI3
ag31
ag44
ag47
aI01
aI-3
aI14
ag17
ag18
ag19
ag35
ag25
ag30
ag15
ag24
ag25
ag17
ag22
ag23
ag14
ag23
aI01
aI-13
aI27
ag22
ag23
ag14
ag17
ag13
ag20
ag14
ag22
ag35
ag15
ag16
ag25
ag27
ag14
ag46
ag30
ag18
ag19
ag19
ag15
ag30
ag18
ag20
ag21
ag13
ag19
ag22
aI01
aI-28
aI43
ag14
ag15
ag35
ag13
ag23
ag14
ag17
ag13
ag16
ag36
ag14
ag22
ag35
ag15
ag23
ag14
ag25
ag20
ag21
ag18
ag23
ag14
ag13
ag20
ag15
ag19
ag22
ag13
ag12
ag21
ag16
ag25
ag17
ag15
ag22
ag30
ag16
ag22
ag35
ag35
ag13
ag19
ag12
aI01
aI-42
aI3
ag22
ag23
ag14
aI01
aI-4
aI22
ag21
ag13
ag22
ag17
ag18
ag20
ag21
ag13
ag20
ag18
ag27
aV-
p49
ag20
ag27
ag36
ag23
ag14
ag22
ag17
ag13
ag19
ag12
aI01
aI-22
aI21
ag45
ag22
ag36
ag17
ag18
ag27
ag15
ag31
ag14
ag37
ag27
ag22
ag15
ag47
ag17
ag18
ag19
ag23
ag24
ag22
ag17
aI01
aI-21
aI17
aVL
p50
ag13
ag19
ag22
ag18
ag17
ag15
aVR
p51
ag22
ag12
ag17
ag22
ag23
ag23
ag13
ag25
ag19
aI01
aI-16
aI18
ag25
ag12
ag13
ag23
ag14
ag13
ag20
ag15
ag51
ag22
ag12
ag17
ag22
ag23
ag23
ag13
ag25
ag19
aI01
aI-19
aI13
ag35
ag22
ag20
ag13
ag23
ag13
ag25
ag19
ag15
ag14
ag17
ag22
ag22
aI01
aI-36
aI17
ag16
ag23
ag14
ag17
ag18
ag20
ag14
ag15
ag23
ag14
ag18
ag20
ag26
ag15
ag20
ag34
ag34
aI01
aI-17
aI17
ag22
ag23
ag15
aV1
p52
aV2
p53
aV8
p54
ag15
ag18
ag22
ag23
ag15
ag20
ag23
ag21
ag18
ag17
ag34
aI01
aI-14
aI14
ag20
ag23
ag21
ag18
ag17
ag34
ag15
ag22
ag39
ag18
ag30
ag34
ag27
ag22
aI01
aI-17
aI15
ag35
ag18
ag34
ag14
ag22
ag17
ag15
ag31
ag25
ag27
ag35
ag13
ag22
ag17
ag23
aI01
aI-14
aI55
ag28
ag18
ag20
ag22
ag19
ag20
ag37
ag15
ag27
ag13
ag23
ag14
ag23
ag15
ag12
ag17
ag18
ag34
ag21
ag15
ag17
ag22
ag34
ag17
ag22
ag23
ag22
ag19
ag14
ag18
ag14
ag13
ag25
ag19
ag15
ag18
ag35
ag28
ag18
ag20
ag22
ag19
ag20
ag37
ag15
ag27
ag13
ag23
ag14
ag23
ag15
ag13
ag19
ag15
ag43
aI01
aI-57
aI5
ag20
ag15
ag30
ag18
ag20
aI01
aI-3
aI5
ag27
ag13
ag19
ag36
ag39
aI01
aI-5
aI7
ag40
ag13
ag19
ag35
ag25
ag40
ag23
aI01
aI-8
aI38
ag22
ag27
ag27
ag36
ag27
ag18
ag17
ag15
ag18
ag36
ag14
ag25
ag30
ag18
ag14
ag25
ag19
ag15
ag20
ag25
ag19
ag40
ag18
ag37
ag23
ag15
ag12
ag18
ag30
ag22
ag15
ag25
ag24
ag15
ag27
ag13
ag24
ag22
aI01
aI-20
aI12
ag16
ag17
ag13
ag18
ag19
ag23
ag15
ag16
ag17
ag18
ag13
ag19
aI01
aI-12
aI28
ag22
ag27
ag22
ag30
ag22
ag19
ag14
ag18
ag17
ag37
ag15
ag20
ag22
ag27
ag27
ag36
ag27
ag18
ag17
ag15
ag18
ag36
ag14
ag25
ag30
ag18
ag14
ag18
aI01
aI-28
aI17
ag12
ag22
ag19
ag22
ag14
ag13
ag20
ag15
ag18
ag27
ag12
ag25
ag17
ag13
ag14
ag21
ag30
aI01
aI-17
aI12
ag27
ag18
ag19
ag12
ag14
ag25
ag19
ag23
ag15
ag18
ag19
ag14
aI01
aI-12
aI24
ag19
ag25
ag16
ag13
ag27
ag13
ag15
ag20
ag22
ag27
ag27
ag36
ag27
ag18
ag17
ag15
ag18
ag36
ag14
ag25
ag30
ag18
ag14
ag18
aI01
aI-24
aI3
ag23
ag17
ag20
aI01
aI-3
aI4
ag14
ag22
ag23
ag14
aI01
aI-4
aI29
ag38
ag25
ag19
ag15
ag19
ag22
ag36
ag30
ag18
ag19
ag19
ag15
ag20
ag22
ag27
ag27
ag36
ag27
ag18
ag17
ag15
ag18
ag36
ag14
ag25
ag30
ag18
ag14
ag18
aI01
aI-47
aI30
ag13
ag17
ag20
ag36
ag27
ag18
ag17
ag15
ag27
ag13
ag19
ag26
ag22
ag35
ag15
ag27
ag13
ag23
ag14
ag15
ag25
ag34
ag22
ag17
ag18
ag14
ag13
ag25
ag19
ag23
aI01
aI-30
aI19
aV+
p55
ag55
ag15
ag36
ag19
ag20
ag17
ag36
ag23
ag14
ag13
ag24
ag37
ag15
ag14
ag22
ag23
ag14
ag23
aI01
aI-16
aI3
ag30
ag18
ag20
aI01
aI-3
aI5
ag27
ag13
ag19
ag36
ag39
aI01
aI-5
aI7
ag40
ag13
ag19
ag35
ag25
ag40
ag23
aI01
aI-10
aI13
ag25
ag23
ag30
ag25
ag23
ag15
ag23
ag20
ag17
ag13
ag34
ag14
ag23
aI01
aI-7
aI3
ag20
ag55
ag55
aI01
aI-2
aI3
ag25
ag35
ag22
aI01
aI-4
aI11
ag14
ag21
ag13
ag17
ag35
ag15
ag34
ag18
ag17
ag14
ag37
aI01
aI-10
aI3
ag22
ag23
ag14
aI01
aI-4
aI6
ag12
ag36
ag13
ag35
ag22
ag23
aI01
aI-6
aI4
ag11
ag12
ag13
ag14
aI01
aI3
ag21
ag36
ag16
aI01
aI-12
aI13
ag30
ag34
ag17
ag22
ag23
ag23
ag13
ag25
ag19
ag15
ag23
ag17
ag20
aI01
aI-3
aI4
ag14
ag22
ag23
ag14
aI01
aI-4
aI17
ag27
ag25
ag23
ag23
ag37
ag15
ag20
ag25
ag30
ag34
ag17
ag22
ag23
ag23
ag13
ag25
ag19
aI01
aI-13
aI16
ag27
ag22
ag23
ag23
ag15
ag20
ag25
ag30
ag34
ag17
ag22
ag23
ag23
ag13
ag25
ag19
aI01
aI-28
aI54
ag36
ag14
ag18
ag14
ag13
ag25
ag19
ag18
ag27
ag15
ag12
ag22
ag25
ag30
ag22
ag14
ag17
ag37
ag15
ag18
ag39
ag13
ag23
ag15
ag18
ag27
ag13
ag12
ag19
ag22
ag35
ag15
ag16
ag25
ag36
ag19
ag35
ag13
ag19
ag12
ag15
ag16
ag25
ag39
ag15
ag20
ag25
ag27
ag27
ag13
ag23
ag13
ag25
ag19
aI01
aI-34
aI14
ag17
ag22
ag18
ag15
ag25
ag24
ag15
ag34
ag25
ag27
ag37
ag12
ag25
ag19
aI01
aI-7
aI8
ag14
ag17
ag13
ag18
ag19
ag12
ag27
ag22
aI01
aI-16
aI15
ag20
ag21
ag18
ag19
ag23
ag15
ag18
ag27
ag12
ag25
ag17
ag13
ag14
ag21
ag30
aI01
aI-14
aI24
ag25
ag21
ag22
ag19
ag15
ag23
ag36
ag14
ag21
ag22
ag17
ag27
ag18
ag19
ag35
ag15
ag27
ag13
ag19
ag22
ag20
ag27
ag13
ag34
aI01
aI-25
aI14
ag16
ag17
ag22
ag23
ag22
ag19
ag21
ag18
ag30
ag15
ag27
ag13
ag19
ag22
aI01
aI-14
aI23
ag35
ag13
ag23
ag14
ag18
ag19
ag20
ag22
ag15
ag16
ag22
ag14
ag40
ag22
ag22
ag19
ag15
ag34
ag25
ag13
ag19
ag14
ag23
aI01
aI-23
aI11
ag12
ag17
ag18
ag21
ag18
ag30
ag15
ag23
ag20
ag18
ag19
aI01
aI-11
aI22
ag21
ag18
ag27
ag24
ag34
ag27
ag18
ag19
ag22
ag15
ag13
ag19
ag14
ag22
ag17
ag23
ag22
ag20
ag14
ag13
ag25
ag19
aI01
aI-22
aI12
ag28
ag18
ag17
ag38
ag13
ag23
ag15
ag30
ag18
ag17
ag20
ag21
aI01
aI-12
aI9
ag48
ag36
ag13
ag20
ag26
ag21
ag36
ag27
ag27
aI01
aI-9
aI31
ag23
ag34
ag21
ag22
ag17
ag22
ag15
ag14
ag22
ag14
ag17
ag18
ag21
ag22
ag35
ag17
ag25
ag19
ag15
ag13
ag19
ag14
ag22
ag17
ag23
ag22
ag20
ag14
ag13
ag25
ag19
aI01
aI-30
aI2
ag17
ag20
aI01
aI-2
aI27
ag36
ag14
ag21
ag22
ag17
ag27
ag18
ag19
ag35
ag15
ag21
ag25
ag35
ag12
ag22
ag30
ag18
ag19
ag15
ag20
ag27
ag13
ag34
ag34
ag13
ag19
ag12
aI01
aI-28
aI23
ag53
ag35
ag15
ag23
ag22
ag34
ag18
ag17
ag18
ag14
ag13
ag19
ag12
ag15
ag18
ag39
ag13
ag23
ag15
ag14
ag22
ag23
ag14
aI01
aI-20
aI17
ag27
ag13
ag19
ag22
ag15
ag13
ag19
ag14
ag22
ag17
ag23
ag22
ag20
ag14
ag13
ag25
ag19
aI01
aI-20
aI4
ag14
ag22
ag23
ag14
aI01
aI-21
aI15
ag22
ag17
ag15
ag12
ag17
ag18
ag34
ag21
ag13
ag20
ag23
ag15
ag23
ag17
ag20
aI01
aI-3
aI14
ag35
ag13
ag18
ag30
ag25
ag19
ag35
ag15
ag23
ag48
ag36
ag18
ag17
ag22
aI01
aI-30
aI12
ag35
ag13
ag19
ag12
ag15
ag23
ag14
ag37
ag27
ag22
ag15
ag20
aI01
aI1
aV#
p56
aI01
aI-1
aI2
ag55
ag55
aI01
aI-3
aI6
ag22
ag27
ag13
ag39
ag13
ag17
aI01
aI-6
aI2
ag12
ag25
aI01
aI-2
aI2
ag24
ag56
aI01
aI-2
aI6
ag26
ag25
ag14
ag27
ag13
ag19
aI01
aI-6
aI4
ag28
ag18
ag38
ag18
aI01
aI6
ag23
ag20
ag17
ag13
ag34
ag14
aI01
aI-10
aI2
ag30
ag27
aI01
aI-2
aI4
ag27
ag13
ag23
ag34
aI01
aI-4
aI6
ag34
ag37
ag14
ag21
ag25
ag19
aI01
aI-5
aI2
ag21
ag34
aI01
aI-2
aI3
ag22
ag17
ag27
aI01
aI-3
aI5
ag18
ag23
ag20
ag18
ag27
aI01
aI-6
aI5
ag23
ag40
ag13
ag24
ag14
aI01
aI-5
aI4
ag17
ag36
ag23
ag14
aI01
aI-2
aI2
ag16
ag37
aI01
aI-4
aI10
ag14
ag37
ag34
ag22
ag23
ag20
ag17
ag13
ag34
ag14
aI01
aI-20
aI25
ag22
ag15
ag18
ag17
ag14
ag13
ag24
ag13
ag20
ag13
ag18
ag27
ag15
ag13
ag19
ag14
ag22
ag27
ag27
ag13
ag12
ag22
ag19
ag20
ag22
aI01
aI-23
aI12
ag20
ag17
ag37
ag34
ag14
ag25
ag12
ag17
ag18
ag34
ag21
ag37
aI01
aI-11
aI17
ag22
ag27
ag27
ag36
ag27
ag18
ag17
ag15
ag18
ag36
ag14
ag25
ag30
ag18
ag14
ag25
ag19
aI01
aI-17
aI10
ag25
ag30
ag34
ag17
ag22
ag23
ag23
ag13
ag25
ag19
aI01
aI-7
aI18
ag36
ag14
ag18
ag14
ag13
ag25
ag19
ag18
ag27
ag15
ag12
ag22
ag25
ag30
ag22
ag14
ag17
ag37
aI01
aI-16
aI11
ag22
ag17
ag15
ag12
ag17
ag18
ag34
ag21
ag13
ag20
ag23
aI01
aI-17
aI16
ag16
ag13
ag14
ag15
ag30
ag18
ag19
ag13
ag34
ag36
ag27
ag18
ag14
ag13
ag25
ag19
aI01
aI-15
aI11
ag18
ag20
ag26
ag14
ag17
ag18
ag20
ag26
ag13
ag19
ag12
aI01
aI-12
aI19
ag35
ag37
ag19
ag18
ag30
ag13
ag20
ag15
ag34
ag17
ag25
ag12
ag17
ag18
ag30
ag30
ag13
ag19
ag12
aI01
aI-18
aI13
ag13
ag38
ag13
ag35
ag22
ag15
ag20
ag25
ag19
ag48
ag36
ag22
ag17
aI01
aI-13
aI13
ag22
ag23
ag13
ag12
ag19
ag15
ag34
ag18
ag14
ag14
ag22
ag17
ag19
aI01
aI-13
aI14
ag18
ag14
ag18
ag15
ag23
ag14
ag17
ag36
ag20
ag14
ag36
ag17
ag22
ag23
aI01
aI-15
aI11
ag12
ag18
ag30
ag22
ag15
ag14
ag21
ag22
ag25
ag17
ag37
aI01
aI-10
aI15
ag17
ag18
ag34
ag21
ag15
ag18
ag27
ag12
ag25
ag17
ag13
ag14
ag21
ag30
ag23
aI01
aI-14
aI15
ag22
ag22
ag35
ag37
ag15
ag18
ag27
ag12
ag25
ag17
ag13
ag14
ag21
ag30
ag23
aI01
aI-17
aI7
ag24
ag13
ag27
ag14
ag22
ag17
ag23
aI01
aI-7
aI23
ag30
ag18
ag14
ag21
ag22
ag30
ag18
ag14
ag13
ag20
ag18
ag27
ag15
ag18
ag27
ag12
ag25
ag17
ag13
ag14
ag21
ag30
ag23
aI01
aI-23
aI16
ag25
ag34
ag22
ag17
ag18
ag14
ag13
ag19
ag12
ag15
ag23
ag37
ag23
ag14
ag22
ag30
aI01
aI-15
aI16
ag19
ag27
ag13
ag19
ag22
ag15
ag20
ag21
ag18
ag27
ag27
ag22
ag19
ag12
ag22
ag23
aI01
aI-17
aI10
ag19
ag22
ag14
ag40
ag25
ag17
ag26
ag13
ag19
ag12
aI01
aI-9
aI17
ag36
ag30
ag22
ag17
ag13
ag20
ag18
ag27
ag15
ag18
ag19
ag18
ag27
ag37
ag23
ag13
ag23
aI01
aI-18
aI25
ag23
ag48
ag36
ag18
ag17
ag22
ag15
ag17
ag25
ag25
ag14
ag15
ag35
ag22
ag20
ag25
ag30
ag34
ag25
ag23
ag13
ag14
ag13
ag25
ag19
aI01
aI-24
aI5
ag22
ag18
ag17
ag20
ag21
aI01
aI-4
aI18
ag27
ag22
ag20
ag14
ag13
ag25
ag19
ag15
ag18
ag27
ag12
ag25
ag17
ag13
ag14
ag21
ag30
ag23
aI01
aI-19
aI16
ag14
ag17
ag13
ag19
ag12
ag15
ag18
ag27
ag12
ag25
ag17
ag13
ag14
ag21
ag30
ag23
aI01
aI-16
aI6
ag25
ag17
ag14
ag13
ag19
ag12
aI01
aI-7
aI21
ag17
ag18
ag19
ag35
ag25
ag30
ag13
ag46
ag22
ag35
ag15
ag18
ag27
ag12
ag25
ag17
ag13
ag14
ag21
ag30
ag23
aI01
aI-21
aI7
ag36
ag14
ag13
ag27
ag13
ag14
ag37
aI01
aI-6
aI11
ag19
ag20
ag27
ag18
ag23
ag23
ag13
ag24
ag13
ag22
ag35
aI01
aI-12
aI21
ag14
ag21
ag22
ag25
ag17
ag37
ag15
ag25
ag24
ag15
ag20
ag25
ag30
ag34
ag36
ag14
ag18
ag14
ag13
ag25
ag19
aI01
aI-24
aI27
ag19
ag20
ag36
ag17
ag17
ag22
ag19
ag20
ag37
ag15
ag34
ag17
ag25
ag35
ag36
ag20
ag22
ag17
ag15
ag20
ag25
ag19
ag23
ag36
ag30
ag22
ag17
aI01
aI-16
aI38
ag22
ag14
ag22
ag17
ag23
ag25
ag19
ag15
ag18
ag27
ag12
ag25
ag17
ag13
ag14
ag21
ag30
ag15
ag24
ag25
ag17
ag15
ag30
ag36
ag14
ag36
ag18
ag27
ag15
ag22
ag39
ag20
ag27
ag36
ag23
ag13
ag25
ag19
aI01
aI-39
aI15
ag17
ag22
ag18
ag35
ag22
ag17
ag23
ag15
ag40
ag17
ag13
ag14
ag22
ag17
ag23
aI01
aI-15
aI8
ag30
ag25
ag19
ag13
ag14
ag25
ag17
ag23
aI01
aI-8
aI19
ag35
ag13
ag19
ag13
ag19
ag12
ag15
ag34
ag21
ag13
ag27
ag25
ag23
ag25
ag34
ag21
ag22
ag17
ag23
aI01
aI-30
aI13
ag34
ag34
ag15
ag18
ag17
ag17
ag18
ag37
ag31
ag14
ag18
ag20
ag26
aI01
aI-13
aI26
ag17
ag37
ag34
ag14
ag25
ag12
ag17
ag18
ag34
ag21
ag37
ag15
ag18
ag36
ag14
ag25
ag26
ag22
ag37
ag15
ag20
ag13
ag34
ag21
ag22
ag17
aI01
aI-13
aI6
ag22
ag23
ag15
ag52
ag53
ag54
aI01
aI-6
aI12
ag14
ag16
ag18
ag23
ag21
ag15
ag20
ag13
ag34
ag21
ag22
ag17
aI01
aI-12
aI12
ag24
ag24
ag13
ag19
ag22
ag15
ag20
ag13
ag34
ag21
ag22
ag17
aI01
aI-13
aI13
ag20
ag18
ag22
ag23
ag18
ag17
ag15
ag20
ag13
ag34
ag21
ag22
ag17
aI01
aI-12
aI28
ag25
ag27
ag36
ag30
ag19
ag18
ag17
ag15
ag14
ag17
ag18
ag19
ag23
ag34
ag25
ag23
ag13
ag14
ag13
ag25
ag19
ag15
ag20
ag13
ag34
ag21
ag22
ag17
aI01
aI-29
aI15
ag16
ag18
ag20
ag25
ag19
ag13
ag18
ag19
ag15
ag20
ag13
ag34
ag21
ag22
ag17
aI01
aI-15
aI16
ag21
ag36
ag24
ag24
ag30
ag18
ag19
ag15
ag22
ag19
ag20
ag25
ag35
ag13
ag19
ag12
aI01
aI-16
aI12
ag30
ag25
ag17
ag23
ag22
ag15
ag20
ag13
ag34
ag21
ag22
ag17
aI01
aI-12
aI12
ag34
ag25
ag17
ag14
ag18
ag15
ag20
ag13
ag34
ag21
ag22
ag17
aI01
aI-10
aI13
ag27
ag37
ag16
ag13
ag36
ag23
ag15
ag20
ag13
ag34
ag21
ag22
ag17
aI01
aI-15
aI3
ag23
ag21
ag18
aI01
aI-2
aI2
ag17
ag20
aI01
aI-3
aI17
ag17
ag18
ag13
ag27
ag15
ag24
ag22
ag19
ag20
ag22
ag15
ag20
ag13
ag34
ag21
ag22
ag17
aI01
aI-16
aI2
ag23
ag18
aI01
aI18
ag15
ag35
ag13
ag12
ag13
ag14
ag18
ag27
ag15
ag23
ag13
ag12
ag19
ag18
ag14
ag36
ag17
ag22
aI01
aI-20
aI16
ag36
ag19
ag19
ag13
ag19
ag12
ag26
ag22
ag37
ag15
ag20
ag13
ag34
ag21
ag22
ag17
aI01
aI-16
aI11
ag25
ag14
ag52
aV3
p57
ag15
ag20
ag13
ag34
ag21
ag22
ag17
aI01
aI-12
aI4
ag14
ag22
ag23
ag14
aI01
aI-4
aI15
ag38
ag13
ag12
ag22
ag19
ag22
ag17
ag22
ag15
ag20
ag13
ag34
ag21
ag22
ag17
aI01
aI-28
aI36
ag16
ag13
ag14
ag15
ag30
ag18
ag19
ag13
ag34
ag36
ag27
ag18
ag14
ag13
ag25
ag19
ag15
ag18
ag35
ag35
ag13
ag14
ag13
ag25
ag19
ag15
ag36
ag23
ag13
ag19
ag12
ag15
ag16
ag13
ag14
ag23
aI01
aI-19
aI14
ag20
ag25
ag36
ag19
ag14
ag15
ag23
ag22
ag14
ag15
ag16
ag13
ag14
ag23
aI01
aI-12
aI19
ag19
ag38
ag22
ag17
ag14
ag15
ag19
ag36
ag30
ag16
ag22
ag17
ag15
ag16
ag13
ag19
ag18
ag17
ag37
aI01
aI-21
aI12
ag16
ag13
ag14
ag15
ag35
ag13
ag38
ag13
ag23
ag13
ag25
ag19
aI01
aI-11
aI11
ag37
ag14
ag22
ag15
ag23
ag40
ag18
ag34
ag34
ag22
ag17
aI01
aI-12
aI9
ag24
ag27
ag13
ag34
ag15
ag16
ag13
ag14
ag23
aI01
aI-9
aI10
ag13
ag19
ag38
ag22
ag17
ag14
ag15
ag16
ag13
ag14
aI01
aI-10
aI16
ag21
ag18
ag30
ag30
ag13
ag19
ag12
ag15
ag35
ag13
ag23
ag14
ag18
ag19
ag20
ag22
aI01
aI-16
aI17
ag30
ag18
ag39
ag13
ag30
ag36
ag30
ag15
ag39
ag25
ag17
ag15
ag38
ag18
ag27
ag36
ag22
aI01
aI-15
aI10
ag12
ag13
ag20
ag15
ag19
ag36
ag30
ag16
ag22
ag17
aI01
aI-12
aI14
ag27
ag25
ag19
ag22
ag27
ag37
ag15
ag13
ag19
ag14
ag22
ag12
ag22
ag17
aI01
aI-14
aI10
ag34
ag25
ag40
ag22
ag17
ag15
ag25
ag24
ag15
ag53
aI01
aI-10
aI3
ag23
ag17
ag20
aI01
aI-2
aI16
ag36
ag16
ag23
ag22
ag14
ag15
ag12
ag22
ag19
ag22
ag17
ag18
ag14
ag13
ag25
ag19
aI01
aI-15
aI16
ag30
ag15
ag16
ag13
ag19
ag18
ag17
ag37
ag15
ag19
ag36
ag30
ag16
ag22
ag17
ag23
aI01
aI-14
aI10
ag22
ag48
ag36
ag18
ag27
ag23
ag15
ag39
ag25
ag17
aI01
aI-14
aI20
ag14
ag21
ag17
ag13
ag20
ag22
ag15
ag36
ag19
ag13
ag48
ag36
ag22
ag15
ag19
ag36
ag30
ag16
ag22
ag17
aI01
aI-19
aI3
ag22
ag23
ag14
aI01
aI-3
aI18
ag40
ag13
ag20
ag22
ag15
ag36
ag19
ag13
ag48
ag36
ag22
ag15
ag19
ag36
ag30
ag16
ag22
ag17
aI01
aI-19
aI8
ag39
ag25
ag17
ag15
ag23
ag40
ag18
ag34
aI01
aI-23
aI17
ag19
ag18
ag17
ag37
ag15
ag14
ag17
ag22
ag22
ag15
ag18
ag18
ag15
ag14
ag17
ag22
ag22
aI01
aI-6
aI7
ag38
ag27
ag15
ag14
ag17
ag22
ag22
aI01
aI-8
aI29
ag20
ag25
ag19
ag38
ag22
ag17
ag14
ag15
ag14
ag25
ag15
ag35
ag25
ag36
ag16
ag27
ag37
ag15
ag27
ag13
ag19
ag26
ag22
ag35
ag15
ag27
ag13
ag23
ag14
aI01
aI-29
aI11
ag16
ag13
ag19
ag18
ag17
ag37
ag15
ag14
ag17
ag22
ag22
aI01
aI-11
aI8
ag35
ag13
ag18
ag30
ag22
ag14
ag22
ag17
aI01
aI-8
aI7
ag13
ag23
ag15
ag23
ag18
ag30
ag22
aI01
aI-4
aI11
ag16
ag13
ag19
ag18
ag17
ag37
ag15
ag14
ag17
ag22
ag22
aI01
aI-10
aI6
ag18
ag27
ag18
ag19
ag20
ag22
aI01
aI-10
aI14
ag30
ag13
ag19
ag13
ag30
ag36
ag30
ag15
ag21
ag22
ag13
ag12
ag21
ag14
aI01
aI-13
aI13
ag18
ag39
ag13
ag30
ag36
ag30
ag15
ag21
ag22
ag13
ag12
ag21
ag14
aI01
aI-12
aI14
ag26
ag22
ag15
ag16
ag13
ag19
ag18
ag17
ag37
ag15
ag14
ag17
ag22
ag22
aI01
aI-11
aI11
ag30
ag13
ag17
ag17
ag25
ag17
ag15
ag14
ag17
ag22
ag22
aI01
aI-16
aI4
ag19
ag25
ag35
ag22
aI01
aI-4
aI8
ag34
ag18
ag14
ag21
ag15
ag23
ag36
ag30
aI01
aI-8
aI10
ag23
ag22
ag17
ag13
ag18
ag27
ag13
ag46
ag22
ag17
aI01
aI-10
aI4
ag17
ag25
ag34
ag22
aI01
aI-4
aI9
ag14
ag17
ag18
ag38
ag22
ag17
ag23
ag18
ag27
aI01
aI-7
aI3
ag22
ag18
ag34
aI01
aI-2
aI1
ag22
aI01
aI-15
aI12
ag15
ag14
ag17
ag22
ag22
ag15
ag16
ag15
ag14
ag17
ag22
ag22
aI01
aI2
ag15
ag43
aI01
aI-8
aI14
ag14
ag40
ag25
ag15
ag14
ag21
ag17
ag22
ag22
ag15
ag14
ag17
ag22
ag22
aI01
aI-20
aI14
ag36
ag13
ag27
ag35
ag22
ag17
ag15
ag16
ag36
ag13
ag27
ag35
ag22
ag17
aI01
aI-14
aI23
ag18
ag20
ag26
ag14
ag17
ag18
ag20
ag26
ag13
ag19
ag12
ag15
ag18
ag27
ag12
ag25
ag17
ag13
ag14
ag21
ag30
ag49
ag39
aI01
aI-11
aI16
ag20
ag17
ag25
ag23
ag23
ag40
ag25
ag17
ag35
ag15
ag34
ag36
ag46
ag46
ag27
ag22
aI01
aI-16
aI11
ag26
ag19
ag13
ag12
ag21
ag14
ag15
ag14
ag25
ag36
ag17
aI01
aI-11
aI18
ag30
ag15
ag20
ag25
ag27
ag25
ag17
ag13
ag19
ag12
ag15
ag34
ag17
ag25
ag16
ag27
ag22
ag30
aI01
aI-18
aI7
ag19
ag15
ag48
ag36
ag22
ag22
ag19
aI01
aI-6
aI21
ag36
ag30
ag16
ag22
ag17
ag15
ag25
ag24
ag15
ag40
ag18
ag37
ag23
ag15
ag13
ag19
ag15
ag30
ag18
ag46
ag22
aI01
aI-22
aI17
ag34
ag18
ag17
ag14
ag13
ag14
ag13
ag25
ag19
ag23
ag15
ag25
ag24
ag15
ag23
ag22
ag14
aI01
aI-3
aI6
ag19
ag36
ag30
ag16
ag22
ag17
aI01
aI-19
aI21
ag22
ag17
ag30
ag36
ag14
ag18
ag14
ag13
ag25
ag19
ag23
ag15
ag25
ag24
ag15
ag23
ag14
ag17
ag13
ag19
ag12
aI01
aI-21
aI7
ag25
ag40
ag22
ag17
ag23
ag22
ag14
aI01
aI-8
aI3
ag23
ag17
ag20
aI01
aI-2
aI9
ag36
ag16
ag23
ag22
ag14
ag15
ag23
ag36
ag30
aI01
aI-8
aI10
ag35
ag25
ag26
ag36
ag15
ag23
ag25
ag27
ag38
ag22
aI01
aI-12
aI13
ag17
ag18
ag14
ag15
ag13
ag19
ag15
ag18
ag15
ag30
ag18
ag46
ag22
aI01
aI-13
aI4
ag14
ag22
ag23
ag14
aI01
aI-17
aI47
ag22
ag39
ag34
ag25
ag19
ag22
ag19
ag14
ag13
ag18
ag14
ag13
ag25
ag19
ag15
ag34
ag25
ag40
ag22
ag17
ag15
ag22
ag39
ag34
ag25
ag19
ag22
ag19
ag14
ag13
ag18
ag14
ag13
ag25
ag19
ag15
ag16
ag37
ag15
ag23
ag48
ag36
ag18
ag17
ag13
ag19
ag12
aI01
aI-46
aI9
ag27
ag13
ag39
ag13
ag17
ag15
ag30
ag18
ag20
aI01
aI-3
aI5
ag27
ag13
ag19
ag36
ag39
aI01
aI-5
aI7
ag40
ag13
ag19
ag35
ag25
ag40
ag23
aI01
aI-13
aI14
ag38
ag22
ag19
ag13
ag19
ag12
ag15
ag17
ag25
ag36
ag14
ag13
ag19
ag22
aI01
aI-15
aI32
ag35
ag37
ag19
ag18
ag30
ag13
ag20
ag15
ag34
ag17
ag25
ag12
ag17
ag18
ag30
ag30
ag13
ag19
ag12
ag15
ag44
ag17
ag17
ag18
ag37
ag15
aVM
p58
ag22
ag35
ag13
ag18
ag19
aI01
aI-12
aI11
ag20
ag25
ag13
ag19
ag15
ag20
ag21
ag18
ag19
ag12
ag22
aI01
aI-11
aI20
ag16
ag13
ag19
ag25
ag30
ag13
ag18
ag27
ag15
ag20
ag25
ag22
ag24
ag24
ag13
ag20
ag13
ag22
ag19
ag14
aI01
aI-19
aI11
ag25
ag39
ag15
ag23
ag14
ag18
ag20
ag26
ag13
ag19
ag12
aI01
aI-10
aI22
ag25
ag27
ag22
ag18
ag19
ag15
ag34
ag18
ag17
ag22
ag19
ag14
ag21
ag22
ag23
ag13
ag46
ag18
ag14
ag13
ag25
ag19
aI01
aI-24
aI13
ag22
ag35
ag13
ag14
ag15
ag35
ag13
ag23
ag14
ag18
ag19
ag20
ag22
aI01
aI-12
aI18
ag12
ag12
ag15
ag35
ag17
ag25
ag34
ag34
ag13
ag19
ag12
ag15
ag34
ag36
ag46
ag46
ag27
ag22
aI01
aI-19
aI8
ag35
ag13
ag12
ag13
ag14
ag15
ag35
ag34
aI01
aI-8
aI9
ag24
ag18
ag20
ag14
ag25
ag17
ag13
ag18
ag27
aI01
aI-9
aI8
ag26
ag19
ag18
ag34
ag23
ag18
ag20
ag26
aI01
aI-8
aI28
ag30
ag13
ag19
ag13
ag30
ag36
ag30
ag15
ag13
ag19
ag23
ag22
ag17
ag14
ag13
ag25
ag19
ag15
ag34
ag18
ag27
ag13
ag19
ag35
ag17
ag25
ag30
ag22
aI01
aI-20
aI26
ag20
ag25
ag23
ag14
ag15
ag34
ag25
ag27
ag37
ag12
ag25
ag19
ag15
ag14
ag17
ag13
ag18
ag19
ag12
ag36
ag27
ag18
ag14
ag13
ag25
ag19
aI01
aI-31
aI10
ag15
ag20
ag25
ag23
ag14
ag15
ag34
ag18
ag14
ag21
aI01
aI-12
aI33
ag18
ag39
ag13
ag30
ag36
ag30
ag15
ag23
ag36
ag30
ag15
ag13
ag19
ag20
ag17
ag22
ag18
ag23
ag13
ag19
ag12
ag15
ag23
ag36
ag16
ag23
ag22
ag48
ag36
ag22
ag19
ag20
ag22
aI01
aI-22
aI10
ag23
ag36
ag16
ag15
ag30
ag18
ag14
ag17
ag13
ag39
aI01
aI-14
aI36
ag40
ag22
ag13
ag12
ag21
ag14
ag15
ag13
ag19
ag35
ag22
ag34
ag22
ag19
ag35
ag22
ag19
ag14
ag15
ag23
ag22
ag14
ag15
ag25
ag24
ag15
ag34
ag18
ag14
ag21
ag15
ag12
ag17
ag18
ag34
ag21
aI01
aI-42
aI25
ag14
ag17
ag13
ag39
ag15
ag20
ag21
ag18
ag13
ag19
ag15
ag30
ag36
ag27
ag14
ag13
ag34
ag27
ag13
ag20
ag18
ag14
ag13
ag25
ag19
aI01
aI-27
aI31
ag27
ag18
ag17
ag12
ag22
ag23
ag14
ag15
ag23
ag36
ag30
ag15
ag20
ag25
ag19
ag14
ag13
ag12
ag36
ag25
ag36
ag23
ag15
ag23
ag36
ag16
ag18
ag17
ag17
ag18
ag37
aI01
aI-30
aI29
ag25
ag19
ag12
ag22
ag23
ag14
ag15
ag13
ag19
ag20
ag17
ag22
ag18
ag23
ag13
ag19
ag12
ag15
ag23
ag36
ag16
ag23
ag22
ag48
ag36
ag22
ag19
ag20
ag22
aI01
aI-20
aI13
ag35
ag22
ag34
ag22
ag19
ag35
ag22
ag19
ag14
ag15
ag23
ag22
ag14
aI01
aI-15
aI20
ag34
ag18
ag27
ag13
ag19
ag35
ag17
ag25
ag30
ag13
ag20
ag15
ag23
ag22
ag48
ag36
ag22
ag19
ag20
ag22
aI01
aI-7
aI8
ag36
ag16
ag23
ag14
ag17
ag13
ag19
ag12
aI01
aI-21
aI29
ag20
ag25
ag30
ag30
ag25
ag19
ag15
ag13
ag19
ag20
ag17
ag22
ag18
ag23
ag13
ag19
ag12
ag15
ag23
ag36
ag16
ag23
ag22
ag48
ag36
ag22
ag19
ag20
ag22
aI01
aI-22
aI11
ag23
ag36
ag16
ag23
ag22
ag48
ag36
ag22
ag19
ag20
ag22
aI01
aI-7
aI5
ag14
ag17
ag13
ag19
ag12
aI01
aI-16
aI21
ag17
ag22
ag34
ag22
ag18
ag14
ag13
ag19
ag12
ag15
ag23
ag36
ag16
ag23
ag22
ag48
ag36
ag22
ag19
ag20
ag22
aI01
aI-21
aI16
ag16
ag13
ag14
ag25
ag19
ag13
ag20
ag15
ag23
ag22
ag48
ag36
ag22
ag19
ag20
ag22
aI01
aI-24
aI26
ag32
ag34
ag14
ag13
ag30
ag18
ag27
ag15
ag42
ag13
ag19
ag18
ag17
ag37
ag15
ag31
ag22
ag18
ag17
ag20
ag21
ag15
ag47
ag17
ag22
ag22
aI01
aI-26
aI22
ag19
ag36
ag30
ag22
ag17
ag13
ag20
ag15
ag26
ag22
ag37
ag34
ag18
ag35
ag15
ag34
ag17
ag25
ag16
ag27
ag22
ag30
aI01
aI-21
aI13
ag25
ag15
ag20
ag25
ag19
ag23
ag22
ag20
ag15
ag25
ag19
ag22
ag23
aI01
aI-14
aI20
ag34
ag18
ag27
ag13
ag19
ag35
ag17
ag25
ag30
ag22
ag15
ag34
ag18
ag17
ag14
ag13
ag14
ag13
ag25
ag19
aI01
aI-20
aI29
ag23
ag21
ag25
ag17
ag14
ag22
ag23
ag14
ag15
ag20
ag25
ag30
ag30
ag25
ag19
ag15
ag23
ag36
ag34
ag22
ag17
ag23
ag22
ag48
ag36
ag22
ag19
ag20
ag22
aI01
aI-28
aI2
ag17
ag20
aI01
aI-2
aI9
ag36
ag16
ag23
ag22
ag14
ag15
ag23
ag36
ag30
aI01
aI-10
aI11
ag17
ag25
ag35
ag15
ag20
ag36
ag14
ag14
ag13
ag19
ag12
aI01
aI-11
aI14
ag14
ag13
ag27
ag13
ag19
ag12
ag15
ag34
ag17
ag25
ag16
ag27
ag22
ag30
aI01
aI-13
aI3
ag22
ag23
ag14
aI01
aI-4
aI23
ag40
ag22
ag13
ag12
ag21
ag14
ag22
ag35
ag15
ag28
ag25
ag16
ag15
ag23
ag20
ag21
ag22
ag35
ag36
ag27
ag13
ag19
ag12
aI01
aI-42
aI10
ag18
ag13
ag27
ag37
ag15
ag14
ag18
ag23
ag26
ag23
aI01
aI-9
aI32
ag14
ag18
ag15
ag23
ag14
ag17
ag36
ag20
ag14
ag36
ag17
ag22
ag23
ag15
ag18
ag35
ag28
ag18
ag20
ag22
ag19
ag20
ag37
ag15
ag30
ag18
ag14
ag17
ag13
ag39
ag15
ag43
aI01
aI-18
aI3
ag16
ag18
ag12
aI01
aI-3
aI5
ag21
ag18
ag23
ag21
ag23
aI01
aI-5
aI4
ag27
ag13
ag23
ag14
aI01
aI-2
aI9
ag19
ag26
ag22
ag35
ag15
ag27
ag13
ag23
ag14
aI01
aI-11
aI5
ag25
ag14
ag21
ag22
ag17
aI01
aI-5
aI5
ag48
ag36
ag22
ag36
ag22
aI01
aI-5
aI3
ag23
ag17
ag20
aI01
aI-2
aI4
ag14
ag18
ag20
ag26
aI01
aI-5
aI4
ag14
ag17
ag22
ag22
aI01
aI-3
aI3
ag22
ag23
ag14
aI01
aI-19
aI26
ag22
ag18
ag35
ag27
ag25
ag20
ag26
ag23
ag15
ag16
ag18
ag19
ag26
ag22
ag17
ag23
ag15
ag18
ag27
ag12
ag25
ag17
ag13
ag14
ag21
ag30
aI01
aI-25
aI28
ag23
ag13
ag12
ag19
ag15
ag34
ag18
ag14
ag14
ag22
ag17
ag19
ag15
ag16
ag36
ag13
ag27
ag35
ag22
ag17
ag15
ag34
ag18
ag14
ag14
ag22
ag17
ag19
aI01
aI-15
aI19
ag24
ag36
ag19
ag20
ag14
ag13
ag25
ag19
ag18
ag27
ag49
ag34
ag18
ag14
ag14
ag22
ag17
ag19
ag23
aI01
aI-19
aI16
ag13
ag14
ag22
ag17
ag18
ag14
ag25
ag17
ag15
ag34
ag18
ag14
ag14
ag22
ag17
ag19
aI01
aI-16
aI12
ag32
ag32
ag33
ag15
ag34
ag18
ag14
ag14
ag22
ag17
ag19
ag23
aI01
aI-12
aI19
ag34
ag25
ag27
ag13
ag20
ag37
ag15
ag16
ag18
ag23
ag22
ag35
ag15
ag35
ag22
ag23
ag13
ag12
ag19
aI01
aI-19
aI17
ag23
ag13
ag19
ag12
ag27
ag22
ag14
ag25
ag19
ag15
ag34
ag18
ag14
ag14
ag22
ag17
ag19
aI01
aI-16
aI2
ag17
ag20
aI01
aI-3
aI4
ag14
ag22
ag23
ag14
aI01
aI-18
aI36
ag13
ag38
ag13
ag35
ag22
ag15
ag20
ag25
ag19
ag48
ag36
ag22
ag17
ag15
ag20
ag27
ag25
ag23
ag22
ag23
ag14
ag15
ag34
ag18
ag13
ag17
ag15
ag25
ag24
ag15
ag34
ag25
ag13
ag19
ag14
ag23
aI01
aI-22
aI9
ag24
ag18
ag20
ag14
ag25
ag17
ag13
ag18
ag27
aI01
aI-9
aI15
ag13
ag19
ag38
ag22
ag17
ag23
ag13
ag25
ag19
ag15
ag20
ag25
ag36
ag19
ag14
aI01
aI-15
aI24
ag26
ag18
ag17
ag18
ag14
ag23
ag36
ag16
ag18
ag15
ag30
ag36
ag27
ag14
ag13
ag34
ag27
ag13
ag20
ag18
ag14
ag13
ag25
ag19
aI01
aI-24
aI34
ag30
ag18
ag39
ag13
ag30
ag36
ag30
ag15
ag20
ag25
ag19
ag14
ag13
ag12
ag36
ag25
ag36
ag23
ag15
ag23
ag36
ag16
ag23
ag22
ag48
ag36
ag22
ag19
ag20
ag22
ag15
ag23
ag36
ag30
aI01
aI-33
aI34
ag22
ag17
ag12
ag22
ag15
ag23
ag25
ag17
ag14
ag15
ag36
ag23
ag13
ag19
ag12
ag15
ag35
ag13
ag38
ag13
ag35
ag22
ag15
ag18
ag19
ag35
ag15
ag20
ag25
ag19
ag48
ag36
ag22
ag17
aI01
aI-35
aI30
ag31
ag14
ag17
ag18
ag23
ag23
ag22
ag19
ag15
ag30
ag18
ag14
ag17
ag13
ag39
ag15
ag30
ag36
ag27
ag14
ag13
ag34
ag27
ag13
ag20
ag18
ag14
ag13
ag25
ag19
aI01
aI-30
aI10
ag48
ag36
ag13
ag20
ag26
ag15
ag23
ag25
ag17
ag14
aI01
aI-10
aI3
ag23
ag17
ag20
aI01
aI-3
aI4
ag14
ag22
ag23
ag14
aI01
aI-3
aI32
ag25
ag36
ag17
ag19
ag18
ag30
ag22
ag19
ag14
ag15
ag30
ag22
ag14
ag21
ag25
ag35
ag15
ag14
ag25
ag15
ag24
ag13
ag19
ag35
ag15
ag30
ag13
ag19
ag15
ag30
ag18
ag39
aI01
aI-33
aI17
ag40
ag18
ag17
ag19
ag25
ag20
ag26
ag15
ag18
ag27
ag12
ag25
ag17
ag13
ag14
ag21
ag30
aI01
aI-17
aI9
ag39
ag15
ag34
ag25
ag40
ag22
ag17
ag15
ag37
aI01
aI-23
aI19
ag25
ag36
ag16
ag27
ag37
ag15
ag27
ag13
ag19
ag26
ag22
ag35
ag15
ag27
ag13
ag23
ag14
ag15
ag43
aI01
aI-20
aI15
ag12
ag18
ag30
ag22
ag15
ag14
ag21
ag22
ag25
ag17
ag37
ag15
ag23
ag17
ag20
aI01
aI-3
aI31
ag12
ag18
ag30
ag22
ag15
ag25
ag24
ag15
ag19
ag13
ag30
ag15
ag40
ag13
ag19
ag15
ag27
ag25
ag23
ag23
ag15
ag34
ag17
ag22
ag35
ag13
ag20
ag14
ag13
ag25
ag19
aI01
aI-19
aI14
ag19
ag22
ag39
ag14
ag15
ag16
ag22
ag23
ag14
ag15
ag30
ag25
ag38
ag22
aI01
aI-25
aI19
ag17
ag36
ag19
ag35
ag37
ag15
ag19
ag36
ag30
ag16
ag22
ag17
ag23
ag15
ag26
ag18
ag37
ag27
ag22
aI01
aI-30
aI18
ag36
ag23
ag23
ag13
ag18
ag19
ag15
ag22
ag27
ag13
ag30
ag13
ag19
ag18
ag14
ag13
ag25
ag19
aI01
aI6
ag15
ag23
ag20
ag18
ag27
ag18
aI01
aI-25
aI31
ag17
ag18
ag34
ag21
ag15
ag18
ag27
ag12
ag25
ag17
ag13
ag14
ag21
ag30
ag23
ag15
ag18
ag23
ag14
ag18
ag17
ag15
ag18
ag27
ag12
ag25
ag17
ag13
ag14
ag21
ag30
aI01
aI-14
aI35
ag35
ag28
ag18
ag20
ag22
ag19
ag20
ag37
ag15
ag27
ag13
ag23
ag14
ag23
ag15
ag12
ag17
ag18
ag34
ag21
ag15
ag17
ag22
ag34
ag17
ag22
ag23
ag22
ag19
ag14
ag18
ag14
ag13
ag25
ag19
aI01
aI-36
aI22
ag20
ag37
ag20
ag27
ag22
ag15
ag36
ag19
ag35
ag13
ag17
ag22
ag20
ag14
ag22
ag35
ag15
ag12
ag17
ag18
ag34
ag21
aI01
aI-16
aI14
ag35
ag13
ag17
ag22
ag20
ag14
ag22
ag35
ag15
ag12
ag17
ag18
ag34
ag21
aI01
aI-19
aI17
ag21
ag18
ag19
ag19
ag22
ag27
ag15
ag18
ag23
ag23
ag13
ag12
ag19
ag30
ag22
ag19
ag14
aI01
aI-17
aI11
ag36
ag14
ag15
ag38
ag22
ag17
ag14
ag13
ag20
ag22
ag23
aI01
aI-11
aI21
ag22
ag19
ag14
ag17
ag25
ag13
ag35
ag15
ag35
ag22
ag20
ag25
ag30
ag34
ag25
ag23
ag13
ag14
ag13
ag25
ag19
aI01
aI-21
aI14
ag25
ag36
ag19
ag14
ag15
ag25
ag24
ag15
ag40
ag18
ag37
ag23
ag15
ag19
aI01
aI-13
aI18
ag19
ag19
ag22
ag20
ag14
ag22
ag35
ag15
ag20
ag25
ag30
ag34
ag25
ag19
ag22
ag19
ag14
ag23
aI01
aI-20
aI15
ag42
ag13
ag34
ag18
ag17
ag14
ag13
ag14
ag22
ag15
ag20
ag21
ag22
ag20
ag26
aI01
aI-15
aI13
ag22
ag36
ag27
ag22
ag17
ag13
ag18
ag19
ag15
ag34
ag18
ag14
ag21
aI01
aI-13
aI15
ag35
ag18
ag14
ag18
ag15
ag23
ag14
ag17
ag36
ag20
ag14
ag36
ag17
ag22
ag23
aI01
aI-14
aI21
ag13
ag28
ag26
ag23
ag14
ag17
ag18
ag15
ag23
ag21
ag25
ag17
ag14
ag22
ag23
ag14
ag15
ag34
ag18
ag14
ag21
aI01
aI-20
aI16
ag19
ag13
ag20
ag15
ag30
ag18
ag39
ag13
ag30
ag36
ag30
ag15
ag24
ag27
ag25
ag40
aI01
aI-17
aI17
ag22
ag34
ag14
ag21
ag15
ag24
ag13
ag17
ag23
ag14
ag15
ag23
ag22
ag18
ag17
ag20
ag21
aI01
aI-18
aI14
ag12
ag17
ag18
ag34
ag21
ag15
ag20
ag25
ag27
ag25
ag17
ag13
ag19
ag12
aI01
aI-14
aI27
ag24
ag27
ag22
ag36
ag17
ag37
ag15
ag18
ag27
ag12
ag25
ag17
ag13
ag14
ag21
ag30
ag15
ag22
ag36
ag27
ag22
ag17
ag15
ag34
ag18
ag14
ag21
aI01
aI-25
aI22
ag25
ag37
ag35
ag15
ag40
ag18
ag17
ag23
ag21
ag18
ag27
ag27
ag15
ag18
ag27
ag12
ag25
ag17
ag13
ag14
ag21
ag30
aI01
aI-23
aI26
ag25
ag17
ag35
ag15
ag24
ag36
ag27
ag26
ag22
ag17
ag23
ag25
ag19
ag15
ag30
ag18
ag39
ag13
ag30
ag36
ag30
ag15
ag24
ag27
ag25
ag40
aI01
aI-27
aI16
ag21
ag18
ag30
ag13
ag27
ag14
ag25
ag19
ag13
ag18
ag19
ag15
ag34
ag18
ag14
ag21
aI01
aI-4
aI5
ag20
ag37
ag20
ag27
ag22
aI01
aI-16
aI22
ag25
ag34
ag20
ag17
ag25
ag24
ag14
ag15
ag26
ag18
ag17
ag34
ag15
ag18
ag27
ag12
ag25
ag17
ag13
ag14
ag21
ag30
aI01
aI-23
aI18
ag26
ag18
ag17
ag12
ag22
ag17
ag15
ag30
ag13
ag19
ag13
ag30
ag36
ag30
ag15
ag20
ag36
ag14
aI01
aI-17
aI28
ag17
ag36
ag23
ag26
ag18
ag27
ag15
ag30
ag13
ag19
ag13
ag30
ag36
ag30
ag15
ag23
ag34
ag18
ag19
ag19
ag13
ag19
ag12
ag15
ag14
ag17
ag22
ag22
aI01
aI-28
aI20
ag36
ag21
ag19
ag15
ag30
ag18
ag39
ag13
ag30
ag36
ag30
ag15
ag30
ag18
ag14
ag20
ag21
ag13
ag19
ag12
aI01
aI-21
aI31
ag28
ag25
ag21
ag19
ag23
ag25
ag19
ag15
ag18
ag27
ag12
ag25
ag17
ag13
ag14
ag21
ag30
ag15
ag23
ag21
ag25
ag17
ag14
ag22
ag23
ag14
ag15
ag34
ag18
ag14
ag21
aI01
aI-31
aI26
ag30
ag18
ag39
ag13
ag30
ag36
ag30
ag15
ag16
ag13
ag34
ag18
ag17
ag14
ag13
ag14
ag22
ag15
ag30
ag18
ag14
ag20
ag21
ag13
ag19
ag12
aI01
aI-18
aI19
ag22
ag35
ag12
ag22
ag15
ag35
ag13
ag23
ag28
ag25
ag13
ag19
ag14
ag15
ag34
ag18
ag14
ag21
ag23
aI01
aI-25
aI19
ag14
ag17
ag13
ag39
ag15
ag14
ag17
ag18
ag19
ag23
ag24
ag25
ag17
ag30
ag18
ag14
ag13
ag25
ag19
aI01
aI-20
aI14
ag13
ag19
ag13
ag30
ag36
ag30
ag15
ag23
ag15
ag14
ag15
ag20
ag36
ag14
aI01
aI-15
aI21
ag27
ag22
ag24
ag14
ag15
ag38
ag13
ag22
ag40
ag15
ag16
ag13
ag19
ag18
ag17
ag37
ag15
ag14
ag17
ag22
ag22
aI01
aI-20
aI34
ag25
ag19
ag12
ag22
ag23
ag14
ag15
ag34
ag18
ag14
ag21
ag15
ag35
ag13
ag17
ag22
ag20
ag14
ag22
ag35
ag15
ag18
ag20
ag37
ag20
ag27
ag13
ag20
ag15
ag12
ag17
ag18
ag34
ag21
aI01
aI-35
aI26
ag34
ag17
ag13
ag30
ag15
ag30
ag13
ag19
ag13
ag30
ag36
ag30
ag15
ag23
ag34
ag18
ag19
ag19
ag13
ag19
ag12
ag15
ag14
ag17
ag22
ag22
aI01
aI-25
aI34
ag25
ag23
ag14
ag25
ag17
ag35
ag22
ag17
ag15
ag24
ag17
ag25
ag30
ag15
ag13
ag19
ag25
ag17
ag35
ag22
ag17
ag15
ag18
ag19
ag35
ag15
ag34
ag17
ag22
ag25
ag17
ag35
ag22
ag17
aI01
aI-35
aI21
ag23
ag21
ag25
ag17
ag14
ag22
ag23
ag14
ag15
ag34
ag18
ag14
ag21
ag15
ag26
ag15
ag22
ag35
ag12
ag22
ag23
aI01
aI-20
aI2
ag17
ag20
aI01
aI-2
aI28
ag14
ag17
ag25
ag19
ag12
ag27
ag37
ag15
ag20
ag25
ag19
ag19
ag22
ag20
ag14
ag22
ag35
ag15
ag20
ag25
ag30
ag34
ag25
ag19
ag22
ag19
ag14
ag23
aI01
aI-27
aI10
ag22
ag13
ag19
ag22
ag17
ag15
ag14
ag17
ag22
ag22
aI01
aI-12
aI18
ag16
ag13
ag34
ag18
ag17
ag14
ag13
ag14
ag22
ag15
ag20
ag21
ag22
ag20
ag26
ag13
ag19
ag12
aI01
aI-16
aI20
ag20
ag25
ag19
ag19
ag22
ag20
ag14
ag22
ag35
ag15
ag20
ag25
ag30
ag34
ag25
ag19
ag22
ag19
ag14
ag23
aI01
aI-21
aI10
ag17
ag13
ag35
ag12
ag22
ag15
ag14
ag17
ag22
ag22
aI01
aI-5
aI10
ag23
ag15
ag13
ag19
ag15
ag12
ag17
ag18
ag34
ag21
aI01
aI-14
aI18
ag22
ag18
ag35
ag14
ag21
ag15
ag24
ag13
ag17
ag23
ag14
ag15
ag23
ag22
ag18
ag17
ag20
ag21
aI01
aI-18
aI21
ag25
ag19
ag15
ag26
ag22
ag17
ag16
ag25
ag23
ag20
ag21
ag15
ag18
ag27
ag12
ag25
ag17
ag13
ag14
ag21
ag30
aI01
aI-22
aI21
ag22
ag27
ag27
ag30
ag18
ag19
ag15
ag24
ag25
ag17
ag35
ag15
ag18
ag27
ag12
ag25
ag17
ag13
ag14
ag21
ag30
aI01
aI-21
aI28
ag25
ag17
ag36
ag38
ag26
ag18
ag15
ag30
ag13
ag19
ag13
ag30
ag36
ag30
ag15
ag23
ag34
ag18
ag19
ag19
ag13
ag19
ag12
ag15
ag14
ag17
ag22
ag22
aI01
aI-29
aI46
ag14
ag18
ag17
ag28
ag18
ag19
ag15
ag18
ag27
ag12
ag25
ag17
ag13
ag14
ag21
ag30
ag15
ag23
ag14
ag17
ag25
ag19
ag12
ag27
ag37
ag15
ag20
ag25
ag19
ag19
ag22
ag20
ag14
ag22
ag35
ag15
ag20
ag25
ag30
ag34
ag25
ag19
ag22
ag19
ag14
ag23
aI01
aI-45
aI22
ag17
ag18
ag38
ag22
ag27
ag27
ag13
ag19
ag12
ag15
ag23
ag18
ag27
ag22
ag23
ag30
ag18
ag19
ag15
ag30
ag23
ag14
aI01
aI-20
aI21
ag19
ag23
ag13
ag14
ag13
ag38
ag22
ag15
ag20
ag27
ag25
ag23
ag36
ag17
ag22
ag15
ag12
ag17
ag18
ag34
ag21
aI01
aI-23
aI3
ag22
ag23
ag14
aI01
aI-3
aI15
ag25
ag34
ag25
ag27
ag25
ag12
ag13
ag20
ag18
ag27
ag15
ag23
ag25
ag17
ag14
aI01
aI-16
aI12
ag38
ag22
ag17
ag14
ag22
ag39
ag15
ag20
ag25
ag38
ag22
ag17
aI01
aI-27
aI34
ag22
ag22
ag35
ag37
ag15
ag18
ag27
ag12
ag25
ag17
ag13
ag14
ag21
ag30
ag23
ag15
ag18
ag20
ag14
ag13
ag38
ag13
ag14
ag37
ag15
ag23
ag22
ag27
ag22
ag20
ag14
ag13
ag25
ag19
aI01
aI-18
aI17
ag22
ag12
ag37
ag34
ag14
ag13
ag18
ag19
ag15
ag24
ag17
ag18
ag20
ag14
ag13
ag25
ag19
aI01
aI-17
aI22
ag35
ag13
ag28
ag26
ag23
ag14
ag17
ag18
ag15
ag23
ag21
ag25
ag17
ag14
ag22
ag23
ag14
ag15
ag34
ag18
ag14
ag21
aI01
aI-22
aI19
ag24
ag17
ag18
ag20
ag14
ag13
ag25
ag19
ag18
ag27
ag15
ag26
ag19
ag18
ag34
ag23
ag18
ag20
ag26
aI01
aI-19
aI11
ag21
ag13
ag27
ag27
ag20
ag27
ag13
ag30
ag16
ag22
ag17
aI01
aI-10
aI13
ag36
ag24
ag24
ag30
ag18
ag19
ag15
ag20
ag25
ag35
ag13
ag19
ag12
aI01
aI-14
aI9
ag26
ag15
ag20
ag22
ag19
ag14
ag22
ag17
ag23
aI01
aI-8
aI28
ag17
ag36
ag23
ag26
ag18
ag27
ag15
ag30
ag13
ag19
ag13
ag30
ag36
ag30
ag15
ag23
ag34
ag18
ag19
ag19
ag13
ag19
ag12
ag15
ag14
ag17
ag22
ag22
aI01
aI-29
aI14
ag28
ag25
ag16
ag15
ag23
ag22
ag48
ag36
ag22
ag19
ag20
ag13
ag19
ag12
aI01
aI-14
aI13
ag30
ag13
ag19
ag13
ag30
ag36
ag30
ag15
ag20
ag25
ag13
ag19
ag23
aI01
aI-13
aI26
ag34
ag17
ag13
ag30
ag15
ag30
ag13
ag19
ag13
ag30
ag36
ag30
ag15
ag23
ag34
ag18
ag19
ag19
ag13
ag19
ag12
ag15
ag14
ag17
ag22
ag22
aI01
aI-26
aI3
ag23
ag17
ag20
aI01
aI-3
aI4
ag14
ag22
ag23
ag14
aI01
aI-4
aI8
ag40
ag18
ag17
ag23
ag21
ag18
ag27
ag27
aI01
aI-25
aI25
ag36
ag13
ag35
ag22
ag23
ag15
ag13
ag19
ag23
ag14
ag18
ag27
ag27
ag18
ag14
ag13
ag25
ag19
ag15
ag12
ag36
ag13
ag35
ag22
ag23
aI01
aI-19
aI12
ag20
ag25
ag35
ag13
ag19
ag12
ag15
ag23
ag14
ag37
ag27
ag22
aI01
aI-18
aI5
ag25
ag15
ag30
ag18
ag20
aI01
aI-3
aI5
ag27
ag13
ag19
ag36
ag39
aI01
aI-5
aI7
ag40
ag13
ag19
ag35
ag25
ag40
ag23
aI01
aI-10
aI12
ag24
ag18
ag20
ag18
ag35
ag22
ag15
ag35
ag18
ag13
ag27
ag37
aI01
aI-9
aI10
ag14
ag25
ag17
ag37
ag15
ag12
ag13
ag24
ag14
ag23
aI01
aI-11
aI11
ag27
ag20
ag25
ag19
ag15
ag20
ag25
ag23
ag30
ag25
ag23
aI01
aI-12
aI10
ag13
ag27
ag14
ag22
ag17
ag23
ag15
ag23
ag17
ag20
aI01
aI-3
aI13
ag30
ag22
ag35
ag13
ag18
ag19
ag15
ag24
ag13
ag27
ag14
ag22
ag17
aI01
aI-13
aI15
ag12
ag18
ag36
ag23
ag23
ag13
ag18
ag19
ag15
ag24
ag13
ag27
ag14
ag22
ag17
aI01
aI-21
aI15
ag19
ag13
ag14
ag22
ag15
ag18
ag36
ag14
ag25
ag30
ag18
ag14
ag18
ag15
ag43
aI01
aI-17
aI22
ag13
ag30
ag18
ag12
ag22
ag15
ag34
ag17
ag25
ag20
ag22
ag23
ag23
ag13
ag19
ag12
ag15
ag43
ag18
ag19
ag19
ag37
aI01
aI-5
aI12
aVE
p59
ag17
ag25
ag35
ag22
ag15
ag35
ag13
ag27
ag18
ag14
ag22
aI01
aI-12
aI15
ag29
ag30
ag18
ag12
ag22
ag15
ag31
ag14
ag13
ag14
ag20
ag21
ag13
ag19
ag12
aI01
aI-15
aI14
ag21
ag25
ag36
ag12
ag21
ag47
ag17
ag18
ag19
ag23
ag24
ag25
ag17
ag30
aI01
aI-14
aI13
ag33
ag17
ag22
ag40
ag13
ag14
ag14
aVF
p60
ag13
ag27
ag14
ag22
ag17
aI01
aI-13
aI11
ag31
ag25
ag16
ag22
ag27
ag60
ag13
ag27
ag14
ag22
ag17
aI01
aI-27
aI20
ag19
ag23
ag14
ag18
ag27
ag27
ag18
ag14
ag13
ag25
ag19
ag15
ag12
ag36
ag13
ag35
ag22
ag23
ag15
ag20
aI01
aI2
ag55
ag55
aI01
aI-3
aI6
ag22
ag27
ag13
ag39
ag13
ag17
aI01
aI-6
aI2
ag12
ag25
aI01
aI-2
aI6
ag26
ag25
ag14
ag27
ag13
ag19
aI01
aI-6
aI4
ag28
ag18
ag38
ag18
aI01
aI6
ag23
ag20
ag17
ag13
ag34
ag14
aI01
aI-10
aI6
ag34
ag37
ag14
ag21
ag25
ag19
aI01
aI4
ag15
ag34
ag13
ag34
aI01
aI-9
aI5
ag18
ag23
ag20
ag18
ag27
aI01
aI-6
aI5
ag23
ag40
ag13
ag24
ag14
aI01
aI-5
aI4
ag17
ag36
ag23
ag14
aI01
aI-2
aI2
ag16
ag37
aI01
aI-22
aI10
ag14
ag22
ag12
ag17
ag18
ag27
ag15
ag23
ag17
ag20
aI01
aI-10
aI20
ag25
ag17
ag35
ag22
ag17
ag15
ag17
ag13
ag12
ag21
ag14
ag15
ag14
ag21
ag17
ag22
ag18
ag35
ag22
ag35
aI01
aI-22
aI16
ag21
ag18
ag23
ag21
ag23
ag15
ag21
ag18
ag23
ag21
ag15
ag14
ag18
ag16
ag27
ag22
aI01
aI-10
aI12
ag16
ag27
ag25
ag25
ag30
ag15
ag24
ag13
ag27
ag14
ag22
ag17
aI01
aI-17
aI16
ag22
ag18
ag34
ag15
ag34
ag18
ag13
ag17
ag13
ag19
ag12
ag15
ag21
ag22
ag18
ag34
aI01
aI-11
aI13
ag17
ag13
ag25
ag17
ag13
ag14
ag37
ag15
ag48
ag36
ag22
ag36
ag22
aI01
aI-14
aI9
ag23
ag25
ag24
ag14
ag15
ag21
ag22
ag18
ag34
aI01
aI-9
aI13
ag16
ag13
ag19
ag25
ag30
ag13
ag18
ag27
ag15
ag21
ag22
ag18
ag34
aI01
aI-13
aI8
ag30
ag13
ag19
ag15
ag21
ag22
ag18
ag34
aI01
aI-7
aI7
ag18
ag39
ag15
ag21
ag22
ag18
ag34
aI01
aI-13
aI10
ag26
ag25
ag14
ag27
ag13
ag19
ag15
ag30
ag18
ag20
aI01
aI-3
aI5
ag27
ag13
ag19
ag36
ag39
aI01
aI-5
aI7
ag40
ag13
ag19
ag35
ag25
ag40
ag23
aI01
aI-14
aI8
ag28
ag18
ag38
ag18
ag15
ag30
ag18
ag20
aI01
aI-3
aI5
ag27
ag13
ag19
ag36
ag39
aI01
aI-5
aI7
ag40
ag13
ag19
ag35
ag25
ag40
ag23
aI01
aI-8
aI10
ag23
ag20
ag17
ag13
ag34
ag14
ag15
ag30
ag18
ag20
aI01
aI-3
aI5
ag27
ag13
ag19
ag36
ag39
aI01
aI-5
aI7
ag40
ag13
ag19
ag35
ag25
ag40
ag23
aI01
aI-18
aI10
ag30
ag18
ag13
ag19
ag15
ag23
ag20
ag18
ag27
ag18
aI01
aI-8
aI40
ag26
ag22
ag15
ag16
ag13
ag19
ag18
ag17
ag37
ag15
ag14
ag17
ag22
ag22
ag15
ag24
ag17
ag25
ag30
ag15
ag13
ag19
ag25
ag17
ag35
ag22
ag17
ag15
ag18
ag19
ag35
ag15
ag34
ag17
ag22
ag25
ag17
ag35
ag22
ag17
aI01
aI-7
aI8
ag25
ag23
ag14
ag25
ag17
ag35
ag22
ag17
aI01
aI-41
aI38
ag14
ag21
ag22
ag30
ag18
ag14
ag13
ag20
ag18
ag27
ag15
ag18
ag27
ag12
ag25
ag17
ag13
ag14
ag21
ag30
ag23
ag15
ag18
ag30
ag13
ag20
ag18
ag16
ag27
ag22
ag15
ag19
ag36
ag30
ag16
ag22
ag17
ag23
aI01
aI-15
aI16
ag17
ag30
ag23
ag14
ag17
ag25
ag19
ag12
ag15
ag19
ag36
ag30
ag16
ag22
ag17
ag23
aI01
aI-16
aI18
ag36
ag14
ag25
ag30
ag25
ag17
ag34
ag21
ag13
ag20
ag15
ag19
ag36
ag30
ag16
ag22
ag17
ag23
aI01
aI-18
aI14
ag35
ag35
ag15
ag34
ag25
ag27
ag37
ag19
ag25
ag30
ag13
ag18
ag27
ag23
aI01
aI-14
aI21
ag38
ag22
ag17
ag18
ag12
ag22
ag15
ag23
ag14
ag17
ag22
ag18
ag30
ag15
ag19
ag36
ag30
ag16
ag22
ag17
ag23
aI01
aI-22
aI14
ag20
ag18
ag14
ag18
ag27
ag18
ag19
ag15
ag19
ag36
ag30
ag16
ag22
ag17
aI01
aI-13
aI14
ag21
ag22
ag20
ag26
ag15
ag13
ag23
ag15
ag23
ag48
ag36
ag18
ag17
ag22
aI01
aI-14
aI14
ag25
ag34
ag17
ag13
ag30
ag22
ag15
ag19
ag36
ag30
ag16
ag22
ag17
ag23
aI01
aI-13
aI10
ag36
ag19
ag14
ag15
ag35
ag13
ag12
ag13
ag14
ag23
aI01
aI-6
aI15
ag14
ag17
ag18
ag13
ag27
ag13
ag19
ag12
ag15
ag46
ag22
ag17
ag25
ag22
ag23
aI01
aI-19
aI9
ag19
ag38
ag25
ag27
ag36
ag14
ag13
ag25
ag19
aI01
aI-11
aI20
ag16
ag13
ag19
ag25
ag30
ag13
ag18
ag27
ag15
ag20
ag25
ag22
ag24
ag24
ag13
ag20
ag13
ag22
ag19
ag14
aI01
aI-19
aI16
ag18
ag16
ag37
ag27
ag25
ag19
ag13
ag18
ag19
ag15
ag30
ag22
ag14
ag21
ag25
ag35
aI01
aI-17
aI20
ag22
ag39
ag34
ag25
ag19
ag22
ag19
ag14
ag13
ag18
ag14
ag13
ag25
ag19
ag15
ag34
ag25
ag40
ag22
ag17
aI01
aI-19
aI12
ag36
ag27
ag22
ag17
ag15
ag14
ag25
ag14
ag13
ag22
ag19
ag14
aI01
aI-13
aI11
ag35
ag13
ag25
ag34
ag21
ag18
ag19
ag14
ag13
ag19
ag22
aI01
aI-9
aI17
ag38
ag13
ag35
ag22
ag35
ag15
ag35
ag13
ag24
ag24
ag22
ag17
ag22
ag19
ag20
ag22
ag23
aI01
aI-18
aI17
ag22
ag20
ag25
ag35
ag13
ag19
ag12
ag15
ag25
ag24
ag15
ag23
ag14
ag17
ag13
ag19
ag12
aI01
aI-16
aI10
ag17
ag18
ag19
ag12
ag22
ag30
ag22
ag19
ag14
ag23
aI01
aI-10
aI13
ag27
ag18
ag19
ag19
ag25
ag37
ag15
ag19
ag36
ag30
ag16
ag22
ag17
aI01
aI-14
aI11
ag24
ag18
ag15
ag35
ag13
ag38
ag13
ag23
ag13
ag25
ag19
aI01
aI-12
aI20
ag12
ag18
ag36
ag23
ag23
ag13
ag18
ag19
ag15
ag22
ag27
ag13
ag30
ag13
ag19
ag18
ag14
ag13
ag25
ag19
aI01
aI-19
aI10
ag20
ag35
ag15
ag18
ag19
ag35
ag15
ag27
ag20
ag30
aI01
aI-10
aI23
ag17
ag22
ag18
ag14
ag22
ag23
ag14
ag15
ag35
ag13
ag12
ag13
ag14
ag15
ag13
ag19
ag15
ag19
ag36
ag30
ag16
ag22
ag17
aI01
aI-24
aI16
ag24
ag13
ag16
ag25
ag19
ag18
ag20
ag20
ag13
ag15
ag19
ag36
ag30
ag16
ag22
ag17
aI01
aI-15
aI16
ag18
ag23
ag14
ag15
ag13
ag19
ag38
ag22
ag17
ag23
ag22
ag15
ag23
ag48
ag17
ag14
aI01
aI-12
aI17
ag24
ag25
ag36
ag17
ag13
ag22
ag17
ag15
ag14
ag17
ag18
ag19
ag23
ag24
ag25
ag17
ag30
aI01
aI-20
aI7
ag20
ag14
ag25
ag17
ag13
ag18
ag27
aI01
aI-8
aI7
ag17
ag18
ag20
ag14
ag18
ag27
ag23
aI01
aI-7
aI21
ag22
ag17
ag30
ag18
ag14
ag23
ag15
ag27
ag13
ag14
ag14
ag27
ag22
ag15
ag14
ag21
ag22
ag25
ag17
ag22
ag30
aI01
aI-22
aI18
ag13
ag19
ag14
ag22
ag12
ag22
ag17
ag15
ag20
ag25
ag19
ag38
ag22
ag17
ag23
ag13
ag25
ag19
aI01
aI-10
aI8
ag14
ag25
ag15
ag17
ag25
ag30
ag18
ag19
aI01
aI-16
aI13
ag21
ag13
ag27
ag27
ag15
ag20
ag27
ag13
ag30
ag16
ag13
ag19
ag12
aI01
aI-12
aI27
ag25
ag17
ag19
ag22
ag17
ag15
ag34
ag25
ag27
ag37
ag19
ag25
ag30
ag13
ag18
ag27
ag15
ag22
ag38
ag18
ag27
ag36
ag18
ag14
ag13
ag25
ag19
aI01
aI-28
aI24
ag26
ag18
ag17
ag18
ag14
ag23
ag36
ag16
ag18
ag15
ag30
ag36
ag27
ag14
ag13
ag34
ag27
ag13
ag20
ag18
ag14
ag13
ag25
ag19
aI01
aI-24
aI13
ag28
ag18
ag20
ag25
ag16
ag13
ag15
ag30
ag22
ag14
ag21
ag25
ag35
aI01
aI-13
aI12
ag30
ag18
ag12
ag13
ag20
ag15
ag23
ag48
ag36
ag18
ag17
ag22
aI01
aI-11
aI18
ag36
ag27
ag14
ag13
ag34
ag27
ag37
ag15
ag34
ag25
ag27
ag37
ag19
ag25
ag30
ag13
ag18
ag27
aI01
aI-18
aI14
ag25
ag35
ag36
ag27
ag18
ag17
ag15
ag13
ag19
ag38
ag22
ag17
ag23
ag22
aI01
aI-15
aI20
ag27
ag18
ag17
ag12
ag17
ag18
ag19
ag12
ag22
ag15
ag34
ag25
ag27
ag37
ag19
ag25
ag30
ag13
ag18
ag27
aI01
aI-19
aI12
ag36
ag20
ag18
ag23
ag15
ag14
ag21
ag22
ag25
ag17
ag22
ag30
aI01
aI-10
aI9
ag26
ag37
ag15
ag19
ag36
ag30
ag16
ag22
ag17
aI01
aI-11
aI24
ag22
ag39
ag13
ag20
ag25
ag12
ag17
ag18
ag34
ag21
ag13
ag20
ag15
ag23
ag14
ag17
ag13
ag19
ag12
ag15
ag17
ag18
ag19
ag26
aI01
aI-24
aI15
ag25
ag12
ag15
ag25
ag24
ag15
ag24
ag18
ag20
ag14
ag25
ag17
ag13
ag18
ag27
aI01
aI-16
aI18
ag19
ag22
ag39
ag14
ag15
ag27
ag18
ag17
ag12
ag22
ag17
ag15
ag19
ag36
ag30
ag16
ag22
ag17
aI01
aI-16
aI11
ag40
ag30
ag18
ag19
ag15
ag20
ag25
ag19
ag40
ag18
ag37
aI01
aI-10
aI14
ag14
ag25
ag19
ag15
ag34
ag25
ag27
ag37
ag19
ag25
ag30
ag13
ag18
ag27
aI01
aI-10
aI14
ag17
ag18
ag34
ag21
ag23
ag25
ag19
ag15
ag30
ag22
ag14
ag21
ag25
ag35
aI01
aI-21
aI15
ag34
ag18
ag23
ag20
ag18
ag27
ag15
ag14
ag17
ag13
ag18
ag19
ag12
ag27
ag22
aI01
aI-13
aI15
ag19
ag35
ag13
ag12
ag13
ag14
ag18
ag27
ag15
ag19
ag36
ag30
ag16
ag22
ag17
aI01
aI-16
aI18
ag37
ag14
ag21
ag18
ag12
ag25
ag17
ag22
ag18
ag19
ag15
ag14
ag17
ag13
ag34
ag27
ag22
ag14
aI01
aI-18
aI14
ag17
ag13
ag30
ag18
ag27
ag13
ag14
ag37
ag15
ag14
ag22
ag23
ag14
ag23
aI01
aI-11
aI14
ag22
ag15
ag19
ag36
ag30
ag16
ag22
ag17
ag23
ag15
ag25
ag24
ag15
ag19
aI01
aI-12
aI7
ag24
ag18
ag20
ag14
ag25
ag17
ag23
aI01
aI-12
aI30
ag22
ag17
ag30
ag36
ag14
ag18
ag14
ag13
ag25
ag19
ag15
ag27
ag22
ag39
ag13
ag20
ag25
ag12
ag17
ag18
ag34
ag21
ag13
ag20
ag15
ag25
ag17
ag35
ag22
ag17
aI01
aI-28
aI11
ag24
ag22
ag20
ag14
ag15
ag19
ag36
ag30
ag16
ag22
ag17
aI01
aI-13
aI13
ag25
ag13
ag23
ag23
ag25
ag19
ag15
ag23
ag18
ag30
ag34
ag27
ag22
aI01
aI-14
aI31
ag23
ag22
ag12
ag30
ag22
ag19
ag14
ag22
ag35
ag15
ag23
ag13
ag22
ag38
ag22
ag15
ag25
ag24
ag15
ag22
ag17
ag18
ag14
ag25
ag23
ag14
ag21
ag22
ag19
ag22
ag23
aI01
aI-30
aI12
ag13
ag30
ag34
ag23
ag25
ag19
ag23
ag15
ag17
ag36
ag27
ag22
aI01
aI-11
aI12
ag22
ag38
ag22
ag15
ag25
ag24
ag15
ag18
ag14
ag26
ag13
ag19
aI01
aI-5
aI12
ag22
ag17
ag18
ag14
ag25
ag23
ag14
ag21
ag22
ag19
ag22
ag23
aI01
aI-20
aI12
ag21
ag36
ag24
ag24
ag27
ag22
ag15
ag18
ag17
ag17
ag18
ag37
aI01
aI-12
aI23
ag30
ag18
ag27
ag27
ag22
ag23
ag14
ag15
ag35
ag13
ag12
ag13
ag14
ag15
ag13
ag19
ag15
ag19
ag36
ag30
ag16
ag22
ag17
aI01
aI-23
aI17
ag48
ag36
ag18
ag17
ag22
ag15
ag24
ag17
ag22
ag22
ag15
ag19
ag36
ag30
ag16
ag22
ag17
aI01
aI-17
aI2
ag17
ag20
aI01
aI-2
aI12
ag36
ag30
ag15
ag25
ag24
ag15
ag35
ag13
ag12
ag13
ag14
ag23
aI01
aI-12
aI15
ag14
ag22
ag22
ag34
ag22
ag23
ag14
ag15
ag35
ag22
ag23
ag20
ag22
ag19
ag14
aI01
aI-14
aI1
ag35
aI01
aI-3
aI30
ag17
ag36
ag23
ag23
ag13
ag18
ag19
ag15
ag34
ag22
ag18
ag23
ag18
ag19
ag14
ag15
ag30
ag36
ag27
ag14
ag13
ag34
ag27
ag13
ag20
ag18
ag14
ag13
ag25
ag19
aI01
aI-29
aI15
ag22
ag34
ag27
ag18
ag20
ag22
ag15
aV0
p61
ag15
ag40
ag13
ag14
ag21
ag15
aV5
p62
aI01
aI-14
aI12
ag38
ag22
ag17
ag23
ag22
ag15
ag19
ag36
ag30
ag16
ag22
ag17
aI01
aI-6
aI9
ag24
ag18
ag20
ag14
ag25
ag17
ag13
ag18
ag27
aI01
aI-17
aI15
ag14
ag18
ag39
ag13
ag20
ag18
ag16
ag15
ag19
ag36
ag30
ag16
ag22
ag17
ag23
aI01
aI-14
aI17
ag17
ag13
ag16
ag25
ag19
ag18
ag20
ag20
ag13
ag15
ag19
ag36
ag30
ag16
ag22
ag17
ag23
aI01
aI-15
aI15
ag35
ag13
ag18
ag12
ag25
ag19
ag18
ag27
ag15
ag30
ag18
ag14
ag17
ag13
ag39
aI01
aI-17
aI3
ag22
ag23
ag14
aI01
aI-3
aI13
ag25
ag40
ag22
ag17
ag15
ag25
ag24
ag15
ag21
ag18
ag19
ag25
ag13
aI01
aI-14
aI4
ag53
ag23
ag36
ag30
aI01
aI-27
aI23
ag36
ag27
ag14
ag13
ag40
ag18
ag37
ag15
ag14
ag17
ag22
ag22
ag15
ag23
ag34
ag27
ag18
ag37
ag15
ag14
ag17
ag22
ag22
aI01
aI-10
aI14
ag17
ag22
ag35
ag15
ag16
ag27
ag18
ag20
ag26
ag15
ag14
ag17
ag22
ag22
aI01
aI-14
aI10
ag36
ag19
ag13
ag25
ag19
ag15
ag24
ag13
ag19
ag35
aI01
aI-10
aI12
ag24
ag22
ag19
ag40
ag13
ag20
ag26
ag15
ag14
ag17
ag22
ag22
aI01
aI-12
aI18
ag38
ag18
ag19
ag15
ag22
ag30
ag35
ag22
ag15
ag16
ag25
ag18
ag23
ag15
ag14
ag17
ag22
ag22
aI01
aI-31
aI31
ag22
ag30
ag25
ag17
ag37
ag15
ag30
ag18
ag19
ag18
ag12
ag22
ag30
ag22
ag19
ag14
ag15
ag30
ag22
ag30
ag25
ag17
ag37
ag15
ag30
ag18
ag34
ag34
ag13
ag19
ag12
aI01
aI-14
aI19
ag27
ag22
ag18
ag23
ag14
ag15
ag17
ag22
ag20
ag22
ag19
ag14
ag27
ag37
ag15
ag36
ag23
ag22
ag35
aI01
aI-36
aI14
ag25
ag17
ag19
ag13
ag19
ag12
ag15
ag17
ag25
ag36
ag14
ag13
ag19
ag22
aI01
aI-13
aI24
ag19
ag13
ag14
ag25
ag17
ag23
ag15
ag30
ag25
ag19
ag13
ag14
ag25
ag17
ag23
ag15
ag23
ag37
ag23
ag14
ag22
ag30
ag15
ag38
aI01
aI-23
aI12
ag14
ag22
ag15
ag20
ag18
ag17
ag27
ag25
ag15
ag23
ag17
ag20
aI01
aI-15
aI20
ag27
ag13
ag23
ag14
ag15
ag39
ag25
ag17
ag15
ag27
ag13
ag19
ag26
ag22
ag35
ag15
ag27
ag13
ag23
ag14
aI01
aI-15
aI18
ag23
ag13
ag19
ag12
ag27
ag37
ag15
ag27
ag13
ag19
ag26
ag22
ag35
ag15
ag27
ag13
ag23
ag14
aI01
aI-17
aI8
ag26
ag13
ag34
ag15
ag27
ag13
ag23
ag14
aI01
aI-9
aI20
ag20
ag13
ag17
ag20
ag36
ag27
ag18
ag17
ag15
ag27
ag13
ag19
ag26
ag22
ag35
ag15
ag27
ag13
ag23
ag14
aI01
aI-20
aI18
ag35
ag25
ag36
ag16
ag27
ag37
ag15
ag27
ag13
ag19
ag26
ag22
ag35
ag15
ag27
ag13
ag23
ag14
aI01
aI-22
aI27
ag25
ag23
ag23
ag27
ag22
ag23
ag23
ag15
ag20
ag25
ag30
ag34
ag17
ag22
ag23
ag23
ag13
ag25
ag19
ag15
ag21
ag36
ag24
ag24
ag30
ag18
ag19
aI01
aI-7
aI16
ag27
ag22
ag30
ag34
ag22
ag27
ag49
ag46
ag13
ag38
ag49
ag40
ag22
ag27
ag20
ag21
aI01
aI-35
aI7
ag12
ag23
ag15
ag17
ag22
ag24
ag23
aI01
aI-9
aI23
ag25
ag34
ag22
ag17
ag18
ag14
ag13
ag25
ag19
ag23
ag15
ag35
ag22
ag14
ag22
ag20
ag14
ag15
ag20
ag37
ag20
ag27
ag22
aI01
aI-10
aI4
ag27
ag22
ag14
ag22
aI01
aI-6
aI4
ag24
ag13
ag19
ag35
aI01
aI-4
aI9
ag13
ag19
ag23
ag22
ag17
ag14
ag13
ag25
ag19
aI01
aI-9
aI12
ag30
ag22
ag17
ag12
ag22
ag15
ag23
ag25
ag17
ag14
ag22
ag35
aI01
aI-12
aI21
ag19
ag15
ag14
ag21
ag15
ag19
ag25
ag35
ag22
ag15
ag27
ag13
ag19
ag26
ag22
ag35
ag15
ag27
ag13
ag23
ag14
aI01
aI-21
aI13
ag34
ag17
ag13
ag19
ag14
ag15
ag17
ag22
ag38
ag22
ag17
ag23
ag22
aI01
aI-12
aI3
ag36
ag23
ag21
aI01
aI-4
aI4
ag23
ag25
ag17
ag14
aI01
aI-4
aI7
ag17
ag22
ag38
ag22
ag17
ag23
ag22
aI01
aI-6
aI5
ag25
ag14
ag18
ag14
ag22
aI01
aI-6
aI12
ag36
ag19
ag20
ag27
ag18
ag23
ag23
ag13
ag24
ag13
ag22
ag35
aI01
aI-16
aI21
ag19
ag12
ag15
ag23
ag37
ag23
ag14
ag22
ag30
ag15
ag20
ag25
ag19
ag20
ag36
ag17
ag17
ag22
ag19
ag20
ag37
aI01
aI-11
aI5
ag23
ag21
ag22
ag27
ag27
aI01
aI-4
aI9
ag20
ag21
ag22
ag35
ag36
ag27
ag13
ag19
ag12
aI01
aI-9
aI2
ag17
ag20
aI01
aI-3
aI17
ag30
ag22
ag30
ag25
ag17
ag37
ag15
ag30
ag18
ag19
ag18
ag12
ag22
ag30
ag22
ag19
ag14
aI01
aI-17
aI4
ag14
ag22
ag23
ag14
aI01
aI-4
aI9
ag35
ag22
ag18
ag35
ag27
ag25
ag20
ag26
ag23
aI01
aI-25
aI21
ag16
ag23
ag22
ag17
ag38
ag22
ag17
ag15
ag28
ag18
ag38
ag18
ag15
ag25
ag16
ag23
ag22
ag17
ag38
ag22
ag17
aI01
aI-13
aI7
ag19
ag22
ag14
ag40
ag25
ag17
ag26
aI01
aI-14
aI10
ag28
ag22
ag20
ag14
ag23
ag15
ag13
ag19
ag24
ag25
aI01
aI-4
aI4
ag34
ag18
ag20
ag26
aI01
aI-11
aI30
ag19
ag27
ag13
ag19
ag22
ag15
ag20
ag21
ag18
ag27
ag27
ag22
ag19
ag12
ag22
ag23
ag15
ag34
ag17
ag25
ag28
ag22
ag20
ag14
ag15
ag22
ag36
ag27
ag22
ag17
aI01
aI-13
aI3
ag23
ag17
ag20
aI01
aI-3
aI8
ag17
ag25
ag23
ag18
ag27
ag13
ag19
ag35
aI01
aI-8
aI4
ag14
ag22
ag23
ag14
aI01
aI-22
aI34
ag19
ag22
ag18
ag17
ag22
ag23
ag14
ag15
ag23
ag22
ag48
ag36
ag22
ag19
ag20
ag22
ag15
ag30
ag22
ag30
ag25
ag17
ag37
ag15
ag19
ag23
ag30
ag15
ag58
ag44
ag47
ag50
ag44
ag42
aI01
aI-32
aI28
ag14
ag40
ag25
ag17
ag26
ag13
ag19
ag12
ag15
ag35
ag22
ag14
ag22
ag17
ag30
ag13
ag19
ag22
ag15
ag22
ag19
ag35
ag13
ag18
ag19
ag22
ag23
ag23
aI01
aI-19
aI13
ag33
ag18
ag20
ag26
ag22
ag14
ag31
ag19
ag13
ag24
ag24
ag22
ag17
aI01
aI-13
aI3
ag23
ag17
ag20
aI01
aI-3
aI4
ag14
ag22
ag23
ag14
aI01
aI-4
aI11
ag38
ag18
ag27
ag13
ag35
ag18
ag14
ag22
ag15
ag29
ag33
aI01
aI-21
aI26
ag36
ag30
ag22
ag17
ag13
ag20
ag18
ag27
ag15
ag18
ag19
ag18
ag27
ag37
ag23
ag13
ag23
ag15
ag13
ag19
ag14
ag22
ag12
ag17
ag18
ag27
aI01
aI-8
aI10
ag17
ag36
ag19
ag12
ag22
ag15
ag26
ag36
ag14
ag14
aI01
aI-10
aI11
ag30
ag25
ag19
ag14
ag22
ag15
ag20
ag18
ag17
ag27
ag25
aI01
aI-30
aI11
ag48
ag36
ag22
ag36
ag22
ag15
ag48
ag36
ag22
ag36
ag22
aI01
aI7
ag15
ag23
ag14
ag17
ag22
ag18
ag30
aI01
aI-6
aI11
ag36
ag23
ag13
ag19
ag12
ag15
ag23
ag14
ag18
ag20
ag26
aI01
aI-5
aI11
ag27
ag13
ag19
ag26
ag22
ag35
ag15
ag27
ag13
ag23
ag14
aI01
aI-23
aI15
ag20
ag13
ag17
ag20
ag36
ag27
ag18
ag17
ag15
ag16
ag36
ag24
ag24
ag22
ag17
aI01
aI-15
aI13
ag17
ag22
ag38
ag22
ag17
ag23
ag22
ag15
ag48
ag36
ag22
ag36
ag22
aI01
aI-13
aI18
ag35
ag25
ag36
ag16
ag27
ag22
ag15
ag22
ag19
ag35
ag22
ag35
ag15
ag48
ag36
ag22
ag36
ag22
aI01
aI-24
aI16
ag34
ag37
ag14
ag21
ag25
ag19
ag15
ag34
ag13
ag34
ag15
ag27
ag13
ag19
ag36
ag39
aI01
aI-9
aI3
ag30
ag18
ag20
aI01
aI-3
aI5
ag27
ag13
ag19
ag36
ag39
aI01
aI-5
aI7
ag40
ag13
ag19
ag35
ag25
ag40
ag23
aI01
aI-13
aI9
ag18
ag23
ag20
ag18
ag27
ag15
ag30
ag18
ag20
aI01
aI-3
aI5
ag27
ag13
ag19
ag36
ag39
aI01
aI-5
aI7
ag40
ag13
ag19
ag35
ag25
ag40
ag23
aI01
aI-12
aI25
ag27
ag13
ag19
ag35
ag17
ag25
ag30
ag22
ag15
ag34
ag18
ag27
ag13
ag19
ag35
ag17
ag25
ag30
ag22
ag15
ag20
ag21
ag22
ag20
ag26
aI01
aI-25
aI15
ag14
ag21
ag15
ag23
ag36
ag30
ag15
ag23
ag36
ag30
ag15
ag27
ag22
ag24
ag14
aI01
aI-16
aI46
ag17
ag13
ag30
ag18
ag27
ag13
ag14
ag37
ag15
ag14
ag22
ag23
ag14
ag23
ag15
ag23
ag25
ag27
ag25
ag38
ag18
ag37
ag49
ag23
ag14
ag17
ag18
ag23
ag23
ag22
ag19
ag15
ag34
ag17
ag13
ag30
ag18
ag27
ag13
ag14
ag37
ag15
ag14
ag22
ag23
ag14
aI01
aI-31
aI27
ag30
ag13
ag27
ag27
ag22
ag17
ag15
ag17
ag18
ag16
ag13
ag19
ag15
ag34
ag17
ag13
ag30
ag18
ag27
ag13
ag14
ag37
ag15
ag14
ag22
ag23
ag14
aI01
aI-27
aI21
ag24
ag22
ag17
ag30
ag18
ag14
ag15
ag34
ag17
ag13
ag30
ag18
ag27
ag13
ag14
ag37
ag15
ag14
ag22
ag23
ag14
aI01
aI-34
aI24
ag25
ag17
ag13
ag14
ag37
ag15
ag48
ag36
ag22
ag36
ag22
ag15
ag27
ag22
ag24
ag14
ag13
ag23
ag14
ag15
ag14
ag17
ag22
ag22
aI01
aI-25
aI17
ag22
ag25
ag17
ag35
ag22
ag17
ag15
ag17
ag13
ag12
ag21
ag14
ag15
ag38
ag13
ag22
ag40
aI01
aI-10
aI9
ag27
ag22
ag24
ag14
ag15
ag38
ag13
ag22
ag40
aI01
aI-16
aI14
ag25
ag39
ag37
ag15
ag34
ag17
ag25
ag14
ag22
ag20
ag14
ag13
ag25
ag19
aI01
aI-10
aI4
ag35
ag22
ag30
ag25
aI01
aI-4
aI7
ag38
ag13
ag17
ag14
ag36
ag18
ag27
aI01
aI-10
aI22
ag28
ag22
ag20
ag14
ag15
ag22
ag36
ag27
ag22
ag17
ag15
ag34
ag17
ag25
ag16
ag27
ag22
ag30
ag15
ag52
ag61
ag53
aI01
aI-3
aI3
ag61
ag52
ag61
aI01
aI-1
aI1
ag57
aI01
aI-1
aI1
ag53
aI01
aI-1
aI1
aV4
p63
aI01
aI-1
aI1
aV6
p64
aI01
aI-1
aI1
aV9
p65
aI01
aI-1
aI1
ag54
aI01
aI-2
aI2
ag61
ag52
aI01
aI-1
aI1
ag57
aI01
aI-1
aI1
ag53
aI01
aI-1
aI1
ag62
aI01
aI-1
aI1
ag63
aI01
aI-1
aI1
aV7
p66
aI01
aI-1
aI1
ag64
aI01
aI-1
aI1
ag65
aI01
aI-1
aI1
ag54
aI01
aI-2
aI2
ag57
ag63
aI01
aI-1
aI1
ag66
aI01
aI-1
aI1
ag64
aI01
aI-2
aI2
ag53
ag52
aI01
aI-1
aI1
ag61
aI01
aI-1
aI1
ag53
aI01
aI-1
aI1
ag62
aI01
aI-1
aI1
ag63
aI01
aI-1
aI1
ag64
aI01
aI-1
aI1
ag54
aI01
aI-2
aI2
ag63
ag61
aI01
aI-2
aI2
ag64
ag66
aI01
aI-22
aI13
ag14
ag22
ag20
ag14
ag13
ag25
ag19
ag15
ag34
ag17
ag25
ag39
ag37
aI01
aI-15
aI62
ag22
ag14
ag22
ag17
ag23
ag25
ag19
ag15
ag18
ag27
ag12
ag25
ag17
ag13
ag14
ag21
ag30
ag15
ag24
ag25
ag17
ag15
ag30
ag36
ag14
ag36
ag18
ag27
ag15
ag22
ag39
ag20
ag27
ag36
ag23
ag13
ag25
ag19
ag15
ag34
ag22
ag14
ag22
ag17
ag23
ag25
ag19
ag15
ag18
ag27
ag12
ag25
ag17
ag13
ag14
ag21
ag30
ag15
ag13
ag19
ag15
ag20
aI01
aI-63
aI13
ag23
ag20
ag18
ag27
ag18
ag15
ag34
ag17
ag25
ag28
ag22
ag20
ag14
aI01
aI-7
aI3
ag23
ag17
ag20
aI01
aI-2
aI9
ag14
ag17
ag36
ag20
ag14
ag36
ag17
ag22
ag23
aI01
aI-10
aI4
ag30
ag18
ag13
ag19
aI01
aI-4
aI8
ag12
ag18
ag36
ag23
ag23
ag13
ag18
ag19
aI01
aI-12
aI33
ag21
ag22
ag35
ag36
ag27
ag13
ag19
ag12
ag15
ag23
ag21
ag25
ag17
ag14
ag22
ag23
ag14
ag15
ag23
ag22
ag22
ag26
ag15
ag14
ag13
ag30
ag22
ag15
ag24
ag13
ag17
ag23
ag14
aI01
aI-23
aI28
ag30
ag18
ag27
ag27
ag22
ag23
ag14
ag15
ag17
ag22
ag30
ag18
ag13
ag19
ag13
ag19
ag12
ag15
ag14
ag13
ag30
ag22
ag15
ag24
ag13
ag17
ag23
ag14
aI01
aI-29
aI22
ag17
ag25
ag36
ag19
ag35
ag15
ag17
ag25
ag16
ag13
ag19
ag15
ag23
ag20
ag21
ag22
ag35
ag36
ag27
ag13
ag19
ag12
aI01
aI-22
aI37
ag30
ag36
ag27
ag14
ag13
ag15
ag27
ag22
ag38
ag22
ag27
ag15
ag24
ag22
ag22
ag35
ag16
ag18
ag20
ag26
ag15
ag48
ag36
ag22
ag36
ag22
ag15
ag23
ag20
ag21
ag22
ag35
ag36
ag27
ag13
ag19
ag12
aI01
aI-37
aI22
ag24
ag13
ag17
ag23
ag14
ag15
ag20
ag25
ag30
ag22
ag15
ag24
ag13
ag17
ag23
ag14
ag15
ag23
ag22
ag17
ag38
ag22
aI01
aI-32
aI19
ag22
ag18
ag17
ag20
ag21
ag15
ag16
ag13
ag19
ag18
ag17
ag37
ag15
ag23
ag22
ag18
ag17
ag20
ag21
aI01
aI-13
aI18
ag22
ag39
ag34
ag25
ag19
ag22
ag19
ag14
ag13
ag18
ag27
ag15
ag23
ag22
ag18
ag17
ag20
ag21
aI01
aI-18
aI16
ag24
ag13
ag16
ag25
ag19
ag18
ag20
ag20
ag13
ag15
ag23
ag22
ag18
ag17
ag20
ag21
aI01
aI-15
aI11
ag36
ag46
ag46
ag37
ag15
ag23
ag22
ag18
ag17
ag20
ag21
aI01
aI-12
aI20
ag13
ag19
ag14
ag22
ag17
ag34
ag25
ag27
ag18
ag14
ag13
ag25
ag19
ag15
ag23
ag22
ag18
ag17
ag20
ag21
aI01
aI-20
aI11
ag28
ag36
ag30
ag34
ag15
ag23
ag22
ag18
ag17
ag20
ag21
aI01
aI-11
aI13
ag27
ag13
ag19
ag22
ag18
ag17
ag15
ag23
ag22
ag18
ag17
ag20
ag21
aI01
aI-13
aI3
ag23
ag17
ag20
aI01
aI-3
aI4
ag14
ag22
ag23
ag14
aI01
aI-2
aI12
ag17
ag19
ag18
ag17
ag37
ag15
ag23
ag22
ag18
ag17
ag20
ag21
aI01
aI-19
aI22
ag27
ag22
ag20
ag14
ag13
ag25
ag19
ag15
ag18
ag27
ag12
ag25
ag17
ag13
ag14
ag21
ag30
ag23
ag15
ag23
ag17
ag20
aI01
aI-3
aI17
ag30
ag22
ag35
ag13
ag18
ag19
ag49
ag25
ag24
ag49
ag30
ag22
ag35
ag13
ag18
ag19
ag23
aI01
aI-17
aI4
ag14
ag22
ag23
ag14
aI01
aI-24
aI28
ag13
ag19
ag12
ag27
ag37
ag15
ag27
ag13
ag19
ag26
ag22
ag35
ag15
ag27
ag13
ag23
ag14
ag15
ag25
ag34
ag22
ag17
ag18
ag14
ag13
ag25
ag19
ag23
aI01
aI-28
aI10
ag21
ag18
ag15
ag23
ag21
ag18
ag15
ag53
ag62
ag64
aI01
aI-9
aI5
ag22
ag27
ag27
ag15
ag43
aI01
aI-6
aI18
ag25
ag17
ag14
ag13
ag19
ag12
ag15
ag20
ag13
ag17
ag20
ag27
ag22
ag15
ag23
ag25
ag17
ag14
aI01
aI-10
aI9
ag37
ag20
ag27
ag22
ag15
ag23
ag25
ag17
ag14
aI01
aI-9
aI8
ag25
ag30
ag16
ag15
ag23
ag25
ag17
ag14
aI01
aI-7
aI11
ag36
ag19
ag14
ag13
ag19
ag12
ag15
ag23
ag25
ag17
ag14
aI01
aI-13
aI9
ag16
ag22
ag18
ag35
ag15
ag23
ag25
ag17
ag14
aI01
aI-8
aI10
ag36
ag20
ag26
ag22
ag14
ag15
ag23
ag25
ag17
ag14
aI01
aI-9
aI9
ag16
ag16
ag27
ag22
ag15
ag23
ag25
ag17
ag14
aI01
aI-10
aI8
ag25
ag12
ag25
ag15
ag23
ag25
ag17
ag14
aI01
aI-9
aI10
ag12
ag19
ag25
ag30
ag22
ag15
ag23
ag25
ag17
ag14
aI01
aI-10
aI10
ag24
ag27
ag18
ag23
ag21
ag15
ag23
ag25
ag17
ag14
aI01
aI-10
aI14
ag13
ag19
ag23
ag22
ag17
ag14
ag13
ag25
ag19
ag15
ag23
ag25
ag17
ag14
aI01
aI-12
aI8
ag14
ag17
ag25
ag15
ag23
ag25
ag17
ag14
aI01
aI-10
aI9
ag21
ag22
ag18
ag34
ag15
ag23
ag25
ag17
ag14
aI01
aI-9
aI10
ag30
ag22
ag17
ag12
ag22
ag15
ag23
ag25
ag17
ag14
aI01
aI-8
aI9
ag35
ag13
ag18
ag19
ag15
ag23
ag25
ag17
ag14
aI01
aI-11
aI10
ag48
ag36
ag13
ag20
ag26
ag15
ag23
ag25
ag17
ag14
aI01
aI-10
aI15
ag34
ag13
ag12
ag22
ag25
ag19
ag21
ag25
ag27
ag22
ag15
ag23
ag25
ag17
ag14
aI01
aI-15
aI11
ag23
ag21
ag18
ag26
ag22
ag17
ag15
ag23
ag25
ag17
ag14
aI01
aI-9
aI8
ag22
ag27
ag27
ag15
ag23
ag25
ag17
ag14
aI01
aI-9
aI2
ag17
ag20
aI01
aI-2
aI13
ag22
ag27
ag22
ag20
ag14
ag13
ag25
ag19
ag15
ag23
ag25
ag17
ag14
aI01
aI-13
aI9
ag27
ag22
ag22
ag34
ag15
ag23
ag25
ag17
ag14
aI01
aI-9
aI10
ag14
ag25
ag25
ag12
ag22
ag15
ag23
ag25
ag17
ag14
aI01
aI-11
aI10
ag17
ag18
ag35
ag13
ag39
ag15
ag23
ag25
ag17
ag14
aI01
aI-10
aI9
ag14
ag17
ag22
ag22
ag15
ag23
ag25
ag17
ag14
aI01
aI-8
aI3
ag22
ag23
ag14
aI01
aI-3
aI15
ag25
ag34
ag25
ag27
ag25
ag12
ag13
ag20
ag18
ag27
ag15
ag23
ag25
ag17
ag14
aI01
aI-23
aI28
ag48
ag36
ag18
ag17
ag22
ag15
ag17
ag25
ag25
ag14
ag15
ag35
ag22
ag20
ag25
ag30
ag34
ag25
ag23
ag13
ag14
ag13
ag25
ag19
ag15
ag23
ag17
ag20
aI01
aI-3
aI13
ag58
ag32
ag23
ag15
ag44
ag27
ag12
ag25
ag17
ag13
ag14
ag21
ag30
aI01
aI-13
aI4
ag14
ag22
ag23
ag14
aI01
aI-29
aI32
ag34
ag18
ag20
ag22
ag15
ag34
ag18
ag17
ag14
ag13
ag14
ag13
ag25
ag19
ag13
ag19
ag12
ag15
ag14
ag17
ag22
ag22
ag15
ag48
ag36
ag18
ag35
ag15
ag14
ag17
ag22
ag22
aI01
aI-9
aI13
ag13
ag19
ag14
ag22
ag17
ag38
ag18
ag27
ag15
ag14
ag17
ag22
ag22
aI01
aI-13
aI12
ag23
ag22
ag12
ag30
ag22
ag19
ag14
ag15
ag14
ag17
ag22
ag22
aI01
aI-12
aI7
ag26
ag35
ag15
ag14
ag17
ag22
ag22
aI01
aI-30
aI19
ag14
ag18
ag20
ag26
ag15
ag18
ag16
ag23
ag14
ag17
ag18
ag20
ag14
ag15
ag23
ag14
ag18
ag20
ag26
aI01
aI-14
aI19
ag16
ag18
ag27
ag18
ag19
ag20
ag22
ag35
ag15
ag22
ag39
ag34
ag17
ag22
ag23
ag23
ag13
ag25
ag19
aI01
aI-19
aI16
ag13
ag19
ag24
ag13
ag39
ag15
ag14
ag25
ag15
ag34
ag25
ag23
ag14
ag24
ag13
ag39
aI01
aI-16
aI17
ag34
ag17
ag22
ag24
ag13
ag39
ag15
ag14
ag25
ag15
ag34
ag25
ag23
ag14
ag24
ag13
ag39
aI01
aI-16
aI17
ag25
ag23
ag14
ag24
ag13
ag39
ag15
ag22
ag38
ag18
ag27
ag36
ag18
ag14
ag13
ag25
ag19
aI01
aI-18
aI5
ag23
ag14
ag18
ag20
ag26
aI01
aI-4
aI9
ag25
ag17
ag14
ag15
ag23
ag14
ag18
ag20
ag26
aI01
aI-10
aI13
ag17
ag22
ag38
ag22
ag17
ag23
ag22
ag15
ag23
ag14
ag18
ag20
ag26
aI01
aI-17
aI38
ag17
ag13
ag19
ag12
ag15
ag18
ag27
ag12
ag25
ag17
ag13
ag14
ag21
ag30
ag23
ag15
ag18
ag21
ag25
ag15
ag20
ag25
ag17
ag18
ag23
ag13
ag20
ag26
ag15
ag18
ag27
ag12
ag25
ag17
ag13
ag14
ag21
ag30
aI01
aI-21
aI26
ag17
ag13
ag14
ag21
ag30
ag22
ag14
ag13
ag20
ag15
ag25
ag19
ag15
ag27
ag18
ag17
ag12
ag22
ag15
ag19
ag36
ag30
ag16
ag22
ag17
ag23
aI01
aI-26
aI13
ag19
ag18
ag12
ag17
ag18
ag30
ag15
ag23
ag22
ag18
ag17
ag20
ag21
aI01
aI-14
aI21
ag16
ag25
ag37
ag22
ag17
ag15
ag30
ag25
ag25
ag17
ag22
ag15
ag18
ag27
ag12
ag25
ag17
ag13
ag14
ag21
ag30
aI01
aI-21
aI15
ag24
ag13
ag19
ag13
ag14
ag22
ag15
ag18
ag36
ag14
ag25
ag30
ag18
ag14
ag18
aI01
aI-15
aI15
ag26
ag18
ag23
ag18
ag13
ag15
ag18
ag27
ag12
ag25
ag17
ag13
ag14
ag21
ag30
aI01
aI-14
aI12
ag30
ag34
ag15
ag18
ag27
ag12
ag25
ag17
ag13
ag14
ag21
ag30
aI01
aI-13
aI18
ag30
ag18
ag19
ag18
ag20
ag21
ag18
ag17
ag15
ag18
ag27
ag12
ag25
ag17
ag13
ag14
ag21
ag30
aI01
aI-17
aI9
ag25
ag17
ag23
ag22
ag15
ag20
ag25
ag35
ag22
aI01
aI-10
aI16
ag27
ag13
ag34
ag25
ag12
ag17
ag18
ag30
ag15
ag20
ag21
ag22
ag20
ag26
ag22
ag17
aI01
aI-15
aI19
ag22
ag38
ag22
ag19
ag23
ag21
ag14
ag22
ag13
ag19
ag15
ag35
ag13
ag23
ag14
ag18
ag19
ag20
ag22
aI01
aI-20
aI20
ag19
ag18
ag13
ag38
ag22
ag15
ag34
ag18
ag14
ag14
ag22
ag17
ag19
ag15
ag23
ag22
ag18
ag17
ag20
ag21
aI01
aI-20
aI25
ag34
ag18
ag23
ag23
ag40
ag25
ag17
ag35
ag15
ag23
ag14
ag17
ag22
ag19
ag12
ag14
ag21
ag15
ag20
ag21
ag22
ag20
ag26
ag22
ag17
aI01
aI-23
aI16
ag27
ag13
ag19
ag35
ag17
ag25
ag30
ag22
ag15
ag20
ag21
ag22
ag20
ag26
ag22
ag17
aI01
aI-7
aI9
ag23
ag36
ag16
ag23
ag14
ag17
ag13
ag19
ag12
aI01
aI-18
aI13
ag19
ag12
ag17
ag18
ag30
ag15
ag20
ag21
ag22
ag20
ag26
ag22
ag17
aI01
aI-15
aI3
ag23
ag17
ag20
aI01
aI-2
aI11
ag36
ag24
ag24
ag13
ag39
ag15
ag18
ag17
ag17
ag18
ag37
aI01
aI-12
aI20
ag17
ag18
ag16
ag13
ag19
ag15
ag26
ag18
ag17
ag34
ag15
ag18
ag27
ag12
ag25
ag17
ag13
ag14
ag21
ag30
aI01
aI-19
aI10
ag22
ag30
ag25
ag38
ag22
ag15
ag35
ag36
ag34
ag23
aI01
aI-11
aI19
ag14
ag17
ag13
ag22
ag15
ag34
ag18
ag14
ag14
ag22
ag17
ag19
ag15
ag23
ag22
ag18
ag17
ag20
ag21
aI01
aI-18
aI3
ag22
ag23
ag14
aI01
aI-4
aI11
ag46
ag15
ag18
ag27
ag12
ag25
ag17
ag13
ag14
ag21
ag30
aI01
aI-28
aI8
ag40
ag13
ag24
ag14
ag15
ag30
ag18
ag20
aI01
aI-3
aI5
ag27
ag13
ag19
ag36
ag39
aI01
aI-5
aI7
ag40
ag13
ag19
ag35
ag25
ag40
ag23
aI01
aI-13
aI50
ag17
ag18
ag19
ag35
ag25
ag30
ag13
ag46
ag22
ag35
ag15
ag18
ag27
ag12
ag25
ag17
ag13
ag14
ag21
ag30
ag23
ag15
ag26
ag18
ag17
ag12
ag22
ag17
ag15
ag30
ag13
ag19
ag13
ag30
ag36
ag30
ag15
ag20
ag36
ag14
ag15
ag18
ag27
ag12
ag25
ag17
ag13
ag14
ag21
ag30
aI01
aI-27
aI29
ag14
ag21
ag15
ag23
ag30
ag18
ag27
ag27
ag22
ag23
ag14
ag15
ag22
ag27
ag22
ag30
ag22
ag19
ag14
ag15
ag18
ag27
ag12
ag25
ag17
ag13
ag14
ag21
ag30
aI01
aI-30
aI16
ag23
ag21
ag36
ag24
ag24
ag27
ag22
ag15
ag18
ag19
ag15
ag18
ag17
ag17
ag18
ag37
aI01
aI-15
aI2
ag17
ag20
aI01
aI-3
aI21
ag17
ag18
ag19
ag35
ag25
ag30
ag13
ag46
ag22
ag35
ag15
ag48
ag36
ag13
ag20
ag26
ag15
ag23
ag25
ag17
ag14
aI01
aI-15
aI16
ag15
ag19
ag25
ag35
ag22
ag15
ag27
ag13
ag19
ag26
ag22
ag35
ag27
ag13
ag23
ag14
aI01
aI-15
aI11
ag24
ag17
ag25
ag30
ag15
ag23
ag14
ag17
ag22
ag18
ag30
aI01
aI-17
aI17
ag22
ag23
ag22
ag17
ag38
ag25
ag13
ag17
ag15
ag23
ag18
ag30
ag34
ag27
ag13
ag19
ag12
aI01
aI-18
aI16
ag16
ag13
ag17
ag14
ag21
ag35
ag18
ag37
ag15
ag34
ag18
ag17
ag18
ag35
ag25
ag39
aI01
aI-16
aI4
ag14
ag22
ag23
ag14
aI01
aI-25
aI7
ag36
ag23
ag14
ag15
ag30
ag18
ag20
aI01
aI-3
aI5
ag27
ag13
ag19
ag36
ag39
aI01
aI-5
aI7
ag40
ag13
ag19
ag35
ag25
ag40
ag23
aI01
aI-10
aI6
ag16
ag37
ag15
ag30
ag18
ag20
aI01
aI-3
aI5
ag27
ag13
ag19
ag36
ag39
aI01
aI-5
aI7
ag40
ag13
ag19
ag35
ag25
ag40
ag23
aI01
aI-10
aI12
ag19
ag12
ag22
ag15
ag26
ag36
ag14
ag14
ag15
ag23
ag17
ag20
aI01
aI-13
aI13
ag22
ag30
ag25
ag14
ag22
ag23
ag15
ag25
ag17
ag13
ag12
ag13
ag19
aI01
aI-12
aI8
ag24
ag23
ag15
ag21
ag22
ag18
ag35
ag23
aI01
aI-5
aI7
ag17
ag22
ag30
ag25
ag14
ag22
ag23
aI01
aI-7
aI4
ag14
ag18
ag12
ag23
aI01
aI-8
aI29
ag25
ag23
ag18
ag27
ag13
ag19
ag35
ag15
ag20
ag25
ag30
ag34
ag27
ag22
ag30
ag22
ag19
ag14
ag15
ag35
ag19
ag18
ag15
ag23
ag14
ag17
ag18
ag19
ag35
aI01
aI-28
aI34
ag36
ag19
ag35
ag15
ag17
ag25
ag16
ag13
ag19
ag15
ag23
ag20
ag21
ag22
ag35
ag36
ag27
ag13
ag19
ag12
ag15
ag17
ag25
ag36
ag19
ag35
ag15
ag17
ag25
ag16
ag13
ag19
ag15
ag20
aI01
aI-36
aI18
ag36
ag14
ag13
ag27
ag13
ag14
ag37
ag15
ag34
ag18
ag27
ag13
ag19
ag35
ag17
ag25
ag30
ag22
aI01
aI-10
aI3
ag23
ag17
ag20
aI01
aI-3
aI4
ag14
ag22
ag23
ag14
aI01
aI-11
aI21
ag19
ag20
ag17
ag36
ag23
ag14
ag13
ag24
ag37
ag15
ag14
ag22
ag23
ag14
ag23
ag15
ag13
ag19
ag34
ag36
ag14
aI01
aI-5
aI6
ag25
ag36
ag14
ag34
ag36
ag14
aI01
aI-20
aI17
ag27
ag18
ag23
ag23
ag13
ag24
ag13
ag22
ag35
ag15
ag18
ag38
ag22
ag17
ag18
ag12
ag22
aI01
aI-7
aI14
ag16
ag13
ag12
ag12
ag22
ag23
ag14
ag15
ag23
ag36
ag24
ag24
ag13
ag39
aI01
aI-6
aI12
ag25
ag24
ag15
ag19
ag15
ag19
ag36
ag30
ag16
ag22
ag17
ag23
aI01
aI-20
aI14
ag24
ag13
ag24
ag14
ag22
ag22
ag19
ag15
ag34
ag36
ag46
ag46
ag27
ag22
aI01
aI-14
aI18
ag28
ag18
ag20
ag20
ag18
ag17
ag35
ag15
ag23
ag13
ag30
ag13
ag27
ag18
ag17
ag13
ag14
ag37
aI01
aI-17
aI15
ag25
ag23
ag22
ag34
ag21
ag36
ag23
ag15
ag34
ag17
ag25
ag16
ag27
ag22
ag30
aI01
aI-16
aI16
ag30
ag18
ag28
ag25
ag17
ag13
ag14
ag37
ag15
ag22
ag27
ag22
ag30
ag22
ag19
ag14
aI01
aI-14
aI10
ag12
ag13
ag20
ag15
ag23
ag48
ag36
ag18
ag17
ag22
aI01
aI-11
aI32
ag13
ag19
ag13
ag30
ag36
ag30
ag15
ag23
ag36
ag16
ag18
ag17
ag17
ag18
ag37
ag15
ag23
ag13
ag46
ag22
ag15
ag40
ag13
ag14
ag21
ag15
ag35
ag22
ag12
ag17
ag22
ag22
aI01
aI-33
aI17
ag27
ag18
ag34
ag13
ag19
ag35
ag17
ag25
ag30
ag15
ag20
ag21
ag22
ag20
ag26
ag22
ag17
aI01
aI-16
aI8
ag22
ag18
ag34
ag15
ag37
ag22
ag18
ag17
aI01
aI-9
aI20
ag19
ag25
ag15
ag25
ag34
ag22
ag17
ag18
ag14
ag25
ag17
ag15
ag18
ag35
ag35
ag13
ag14
ag13
ag25
ag19
aI01
aI-20
aI10
ag34
ag18
ag13
ag19
ag14
ag15
ag24
ag13
ag27
ag27
aI01
aI-10
aI12
ag23
ag34
ag13
ag17
ag18
ag27
ag15
ag34
ag17
ag13
ag19
ag14
aI01
aI3
ag13
ag19
ag12
aI01
aI-13
aI8
ag27
ag13
ag14
ag15
ag27
ag13
ag23
ag14
aI01
aI-9
aI2
ag17
ag20
aI01
aI-2
aI26
ag30
ag18
ag27
ag27
ag22
ag23
ag14
ag15
ag19
ag36
ag30
ag16
ag22
ag17
ag15
ag14
ag25
ag15
ag14
ag21
ag22
ag15
ag27
ag22
ag24
ag14
aI01
aI-27
aI9
ag36
ag14
ag13
ag27
ag13
ag14
ag13
ag22
ag23
aI01
aI-8
aI12
ag19
ag13
ag48
ag36
ag22
ag15
ag19
ag36
ag30
ag16
ag22
ag17
aI01
aI-13
aI4
ag14
ag22
ag23
ag14
aI01
aI-3
aI8
ag25
ag26
ag22
ag19
ag13
ag46
ag22
ag17
aI01
aI-22
aI13
ag14
ag18
ag23
ag26
ag23
ag15
ag22
ag38
ag22
ag19
ag13
ag19
ag12
aI01
aI-7
aI3
ag28
ag25
ag16
aI01
aI-3
aI7
ag30
ag25
ag17
ag19
ag13
ag19
ag12
aI01
aI-7
aI3
ag12
ag37
ag30
aI01
aI-8
aI21
ag21
ag13
ag17
ag35
ag15
ag34
ag18
ag17
ag14
ag37
ag15
ag36
ag19
ag20
ag17
ag36
ag23
ag14
ag13
ag24
ag37
aI01
aI-20
aI23
ag22
ag25
ag17
ag37
ag15
ag25
ag24
ag15
ag20
ag25
ag30
ag34
ag36
ag14
ag18
ag14
ag13
ag25
ag19
ag15
ag23
ag17
ag20
aI01
aI-3
aI30
ag35
ag22
ag14
ag22
ag17
ag30
ag13
ag19
ag13
ag23
ag14
ag13
ag20
ag15
ag24
ag13
ag19
ag13
ag14
ag22
ag15
ag18
ag36
ag14
ag25
ag30
ag18
ag14
ag25
ag19
aI01
aI-30
aI32
ag19
ag25
ag19
ag35
ag22
ag14
ag22
ag17
ag30
ag13
ag19
ag13
ag23
ag14
ag13
ag20
ag15
ag24
ag13
ag19
ag13
ag14
ag22
ag15
ag18
ag14
ag25
ag30
ag18
ag14
ag25
ag19
aI01
aI-53
aI16
ag17
ag18
ag38
ag22
ag17
ag23
ag18
ag27
ag15
ag13
ag19
ag25
ag17
ag35
ag22
ag17
aI01
aI-7
aI8
ag34
ag17
ag22
ag25
ag17
ag35
ag22
ag17
aI01
aI-8
aI6
ag46
ag13
ag12
ag46
ag18
ag12
aI01
aI-14
aI14
ag22
ag22
ag15
ag16
ag13
ag19
ag18
ag17
ag37
ag15
ag14
ag17
ag22
ag22
aI01
aI-10
aI5
ag15
ag14
ag17
ag22
ag22
aI01
aI-5
aI22
ag25
ag14
ag14
ag25
ag30
ag15
ag38
ag13
ag22
ag40
ag15
ag16
ag13
ag19
ag18
ag17
ag37
ag15
ag14
ag17
ag22
ag22
aI01
aI-23
aI4
ag21
ag22
ag18
ag34
aI01
aI-4
aI13
ag30
ag36
ag27
ag14
ag13
ag40
ag18
ag37
ag15
ag14
ag17
ag22
ag22
aI01
aI-13
aI23
ag23
ag34
ag18
ag20
ag22
ag15
ag34
ag18
ag17
ag14
ag13
ag14
ag13
ag25
ag19
ag13
ag19
ag12
ag15
ag14
ag17
ag22
ag22
aI01
aI-22
aI11
ag36
ag24
ag24
ag13
ag39
ag15
ag18
ag17
ag17
ag18
ag37
aI01
aI-11
aI11
ag22
ag12
ag30
ag22
ag19
ag14
ag15
ag14
ag17
ag22
ag22
aI01
aI-12
aI4
ag14
ag17
ag13
ag22
aI01
aI-2
aI2
ag22
ag22
aI01
aI-4
aI18
aVV
p67
ag18
ag19
ag15
ag59
ag30
ag35
ag22
ag15
ag42
ag25
ag18
ag23
ag15
ag47
ag17
ag22
ag22
aI01
aI-23
aI13
ag38
ag13
ag17
ag14
ag36
ag18
ag27
ag15
ag34
ag17
ag25
ag39
ag37
aI01
absS'_sorted'
p68
I00
sb.